(dp0
S'limited'
p1
F0.16666666666666666
sS'promenade'
p2
F1.0
sS'seated'
p3
F0.5
sS'shinseki'
p4
F1.0
sS'consolidated'
p5
F0.25
sS'dynamic'
p6
F0.5
sS'all'
p7
F0.10483870967741936
sS'khalid'
p8
F1.0
sS'four'
p9
F0.14285714285714285
sS'facilities'
p10
F0.125
sS'protest'
p11
F0.125
sS'woods'
p12
F1.0
sS'asian'
p13
F0.5
sS'orbiters'
p14
F1.0
sS'captain'
p15
F0.2
sS'saved'
p16
F1.0
sS'webster'
p17
F0.5
sS'gillespie'
p18
F0.5
sS'ozzy'
p19
F0.5
sS'whose'
p20
F0.17647058823529413
sS'votes'
p21
F0.45454545454545453
sS'patches'
p22
F0.5
sS'granting'
p23
F0.3333333333333333
sS'electricity'
p24
F0.3333333333333333
sS'contained'
p25
F0.5
sS'painters'
p26
F1.0
sS'bike'
p27
F0.6666666666666666
sS'voted'
p28
F0.25
sS'under'
p29
F0.09302325581395349
sS'lord'
p30
F0.6666666666666666
sS'spansion'
p31
F0.5
sS'sway'
p32
F1.0
sS'worth'
p33
F0.09090909090909091
sS'placed'
p34
F0.16666666666666666
sS'updated'
p35
F0.25
sS'officemax'
p36
F1.0
sS'treasuries'
p37
F0.5
sS'risk'
p38
F0.14705882352941177
sS'perroud'
p39
F1.0
sS'santangelo'
p40
F1.0
sS'rise'
p41
F0.13333333333333333
sS'dell'
p42
F0.09090909090909091
sS'sco'
p43
F0.2222222222222222
sS'repay'
p44
F1.0
sS'advisors'
p45
F1.0
sS'stolen'
p46
F0.4
sS'every'
p47
F0.08333333333333333
sS'jack'
p48
F0.2
sS'uncertain'
p49
F0.5
sS'audiotape'
p50
F1.0
sS'flattened'
p51
F1.0
sS'monkeys'
p52
F1.0
sS'identity'
p53
F0.14285714285714285
sS'school'
p54
F0.3142857142857143
sS'receiving'
p55
F0.3333333333333333
sS'metals'
p56
F1.0
sS'umts'
p57
F1.0
sS'morrill'
p58
F1.0
sS'companies'
p59
F0.19672131147540983
sS'wednesday'
p60
F0.16981132075471697
sS'000'
p61
F0.2808219178082192
sS'herbert'
p62
F1.0
sS'durousseau'
p63
F0.3333333333333333
sS'convenience'
p64
F0.25
sS'debris'
p65
F1.0
sS'red'
p66
F0.16666666666666666
sS'299'
p67
F1.0
sS'employees'
p68
F0.07142857142857142
sS'295'
p69
F0.5
sS'ups'
p70
F1.0
sS'falco'
p71
F1.0
sS'clothes'
p72
F0.5
sS'enjoy'
p73
F0.5
sS'jamaica'
p74
F0.5
sS'expanded'
p75
F0.2
sS'force'
p76
F0.3055555555555556
sS'leaders'
p77
F0.14285714285714285
sS'tired'
p78
F0.6666666666666666
sS'miller'
p79
F0.75
sS'guidelines'
p80
F0.2
sS'estimates'
p81
F0.14285714285714285
sS'japanese'
p82
F0.25
sS'lubanski'
p83
F1.0
sS'surrounding'
p84
F0.2857142857142857
sS'second'
p85
F0.15789473684210525
sS'attended'
p86
F0.16666666666666666
sS'hadow'
p87
F1.0
sS'lacy'
p88
F0.5
sS'estimated'
p89
F0.13793103448275862
sS'clubs'
p90
F0.25
sS'jessica'
p91
F0.5
sS'blue'
p92
F0.1111111111111111
sS'established'
p93
F0.16666666666666666
sS'spouses'
p94
F1.0
sS'christ'
p95
F1.0
sS'ruben'
p96
F1.0
sS'tajikistan'
p97
F1.0
sS'contributed'
p98
F0.8
sS'4'
p99
F0.29797979797979796
sS'asia'
p100
F0.25
sS'nea'
p101
F1.0
sS'spokesman'
p102
F0.15384615384615385
sS'lights'
p103
F0.3333333333333333
sS'chechen'
p104
F0.3333333333333333
sS'reconstruction'
p105
F0.2857142857142857
sS'cars'
p106
F0.42857142857142855
sS'new'
p107
F0.21660649819494585
sS'net'
p108
F0.15789473684210525
sS'ever'
p109
F0.07692307692307693
sS'told'
p110
F0.15789473684210525
sS'specialist'
p111
F0.5
sS'curry'
p112
F0.6666666666666666
sS'reporter'
p113
F0.25
sS'mel'
p114
F1.0
sS'men'
p115
F0.2222222222222222
sS'sanford'
p116
F1.0
sS'here'
p117
F0.15789473684210525
sS'hundreds'
p118
F0.13333333333333333
sS'215'
p119
F0.5
sS'reported'
p120
F0.175
sS'pratt'
p121
F1.0
sS'protection'
p122
F0.14285714285714285
sS'china'
p123
F0.28
sS'brooks'
p124
F1.0
sS'active'
p125
F0.16666666666666666
sS'aftermath'
p126
F0.25
sS'100'
p127
F0.2413793103448276
sS'reshuffle'
p128
F0.5
sS'violate'
p129
F0.5
sS'niemann'
p130
F1.0
sS'property'
p131
F0.15384615384615385
sS'daughter'
p132
F0.23076923076923078
sS'aug'
p133
F0.08333333333333333
sS'forum'
p134
F0.25
sS'wto'
p135
F1.0
sS'items'
p136
F0.14285714285714285
sS'study'
p137
F0.10714285714285714
sS'climbed'
p138
F0.13333333333333333
sS'reports'
p139
F0.2222222222222222
sS'credit'
p140
F0.17647058823529413
sS'analysts'
p141
F0.2682926829268293
sS'smoke'
p142
F0.3
sS'browsing'
p143
F1.0
sS'halabi'
p144
F1.0
sS'military'
p145
F0.18604651162790697
sS'changes'
p146
F0.08695652173913043
sS'punishment'
p147
F0.3333333333333333
sS'rebel'
p148
F0.2857142857142857
sS'besides'
p149
F0.3333333333333333
sS'campaign'
p150
F0.3333333333333333
sS'owed'
p151
F0.5
sS'search'
p152
F0.2
sS'julie'
p153
F0.5
sS'graders'
p154
F1.0
sS'reagan'
p155
F0.1111111111111111
sS'brame'
p156
F1.0
sS'highly'
p157
F0.3333333333333333
sS'county'
p158
F0.30158730158730157
sS'patience'
p159
F0.5
sS'unix'
p160
F0.3333333333333333
sS'qcom'
p161
F0.5
sS'lupas'
p162
F0.25
sS'pyongyang'
p163
F1.0
sS'siebel'
p164
F0.3333333333333333
sS'compounds'
p165
F0.5
sS'counts'
p166
F0.2222222222222222
sS'total'
p167
F0.0967741935483871
sS'unit'
p168
F0.35294117647058826
sS'053'
p169
F1.0
sS'summer'
p170
F0.1
sS'plot'
p171
F0.6
sS'agassi'
p172
F1.0
sS'swings'
p173
F0.5
sS'rapidly'
p174
F0.3333333333333333
sS'would'
p175
F0.15510204081632653
sS'army'
p176
F0.3333333333333333
sS'hospital'
p177
F0.3269230769230769
sS'voters'
p178
F0.21428571428571427
sS'backing'
p179
F0.5
sS'refunding'
p180
F1.0
sS'music'
p181
F0.3
sS'asset'
p182
F0.5
sS'strike'
p183
F0.09090909090909091
sS'indiana'
p184
F0.25
sS'tell'
p185
F0.5
sS'surya'
p186
F1.0
sS'supporters'
p187
F0.16666666666666666
sS'advance'
p188
F0.125
sS'composite'
p189
F0.39705882352941174
sS'hereby'
p190
F1.0
sS'khodorkovsky'
p191
F0.3333333333333333
sS'hurt'
p192
F1.0
sS'99'
p193
F0.125
sS'98'
p194
F0.4444444444444444
sS'connecticut'
p195
F0.14285714285714285
sS'championships'
p196
F0.5
sS'frenzy'
p197
F0.5
sS'shelters'
p198
F0.3333333333333333
sS'prescription'
p199
F0.3333333333333333
sS'91'
p200
F0.16666666666666666
sS'90'
p201
F0.15
sS'93'
p202
F0.3333333333333333
sS'95'
p203
F0.16666666666666666
sS'94'
p204
F0.15384615384615385
sS'tampa'
p205
F0.4
sS'must'
p206
F0.25
sS'me'
p207
F0.2
sS'1990'
p208
F0.16666666666666666
sS'1995'
p209
F0.125
sS'1994'
p210
F0.14285714285714285
sS'1997'
p211
F0.09090909090909091
sS'rights'
p212
F0.19230769230769232
sS'1999'
p213
F0.17647058823529413
sS'1998'
p214
F0.21428571428571427
sS'achieve'
p215
F0.25
sS'work'
p216
F0.10810810810810811
sS'magee'
p217
F1.0
sS'mt'
p218
F1.0
sS'colorful'
p219
F1.0
sS'temperatures'
p220
F0.3333333333333333
sS'mechanic'
p221
F0.5
sS'mr'
p222
F0.0872093023255814
sS'already'
p223
F0.06896551724137931
sS'lieutenant'
p224
F0.6666666666666666
sS'revenues'
p225
F0.18181818181818182
sS'my'
p226
F0.19444444444444445
sS'misfortunes'
p227
F1.0
sS'roadway'
p228
F1.0
sS'41'
p229
F0.13043478260869565
sS'estate'
p230
F0.5
sS'cited'
p231
F0.1111111111111111
sS'euthanasia'
p232
F0.5
sS'india'
p233
F0.25
sS'uaw'
p234
F1.0
sS'currency'
p235
F0.23076923076923078
sS'satisfactory'
p236
F1.0
sS'walsh'
p237
F0.5
sS'reviewing'
p238
F0.3333333333333333
sS'want'
p239
F0.08695652173913043
sS'teamsters'
p240
F0.5
sS'drive'
p241
F0.125
sS'times'
p242
F0.15789473684210525
sS'cites'
p243
F1.0
sS'rescue'
p244
F0.2857142857142857
sS'end'
p245
F0.16666666666666666
sS'recovery'
p246
F0.07142857142857142
sS'winkenwerder'
p247
F1.0
sS'provide'
p248
F0.05
sS'reconciliation'
p249
F0.3333333333333333
sS'travel'
p250
F0.25
sS'sharepoint'
p251
F1.0
sS'nuts'
p252
F0.5
sS'march'
p253
F0.27906976744186046
sS'very'
p254
F0.23076923076923078
sS'hot'
p255
F0.1111111111111111
sS'games'
p256
F0.42857142857142855
sS'answer'
p257
F0.16666666666666666
sS'flow'
p258
F0.16666666666666666
sS'panasonic'
p259
F1.0
sS'beach'
p260
F0.25
sS'ronnie'
p261
F1.0
sS'gamble'
p262
F0.5
sS'hoy'
p263
F1.0
sS'barbra'
p264
F1.0
sS'oceans'
p265
F1.0
sS'honored'
p266
F0.2
sS'elizabeth'
p267
F0.2
sS'beauty'
p268
F0.5
sS'replacing'
p269
F0.5
sS'stefani'
p270
F1.0
sS'coined'
p271
F0.5
sS'earlier'
p272
F0.18333333333333332
sS'confirmed'
p273
F0.09523809523809523
sS'demanding'
p274
F0.25
sS'detention'
p275
F0.2
sS'violates'
p276
F0.25
sS'wrong'
p277
F0.26666666666666666
sS'jumping'
p278
F0.25
sS'palumbo'
p279
F1.0
sS'schoolchildren'
p280
F0.3333333333333333
sS'president'
p281
F0.2925170068027211
sS'law'
p282
F0.1746031746031746
sS'lesbian'
p283
F0.3333333333333333
sS'las'
p284
F0.375
sS'purchase'
p285
F0.3333333333333333
sS'nowitzki'
p286
F1.0
sS'cosmonaut'
p287
F0.5
sS'third'
p288
F0.14814814814814814
sS'alienate'
p289
F1.0
sS'wins'
p290
F0.6666666666666666
sS'headquarters'
p291
F0.125
sS'childhood'
p292
F1.0
sS'allison'
p293
F0.5
sS'green'
p294
F0.25
sS'berlusconi'
p295
F0.625
sS'uninsured'
p296
F1.0
sS'balancing'
p297
F1.0
sS'democratic'
p298
F0.2222222222222222
sS'order'
p299
F0.2631578947368421
sS'reforming'
p300
F1.0
sS'operations'
p301
F0.07692307692307693
sS'tellabs'
p302
F1.0
sS'singaporean'
p303
F1.0
sS'office'
p304
F0.23728813559322035
sS'misadventure'
p305
F1.0
sS'telecom'
p306
F0.3333333333333333
sS'over'
p307
F0.06722689075630252
sS'expects'
p308
F0.4
sS'barrett'
p309
F0.5
sS'presence'
p310
F0.3333333333333333
sS'mallard'
p311
F0.5
sS'london'
p312
F0.2222222222222222
sS'kong'
p313
F0.4444444444444444
sS'scalia'
p314
F0.16666666666666666
sS'strangle'
p315
F1.0
sS'spam'
p316
F0.125
sS'sidelines'
p317
F1.0
sS'sorbello'
p318
F1.0
sS'before'
p319
F0.13541666666666666
sS'californians'
p320
F0.3333333333333333
sS'fit'
p321
F0.2
sS'personal'
p322
F0.06666666666666667
sS'fix'
p323
F0.5
sS'stevens'
p324
F0.2
sS'expectations'
p325
F0.14285714285714285
sS'blackened'
p326
F1.0
sS'crew'
p327
F0.2857142857142857
sS'destroyed'
p328
F0.2
sS'production'
p329
F0.25
sS'compensatory'
p330
F0.6666666666666666
sS'conner'
p331
F0.6666666666666666
sS'401'
p332
F0.5
sS'400'
p333
F0.2
sS'fauci'
p334
F1.0
sS'weeks'
p335
F0.08571428571428572
sS'citigroup'
p336
F0.125
sS'overcome'
p337
F0.5
sS'versus'
p338
F0.4
sS'eventually'
p339
F0.25
sS'them'
p340
F0.19718309859154928
sS'iowa'
p341
F0.3333333333333333
sS'deletion'
p342
F1.0
sS'bans'
p343
F0.5
sS'spray'
p344
F0.25
sS'similar'
p345
F0.15384615384615385
sS'slate'
p346
F1.0
sS'safe'
p347
F0.375
sS'detnews'
p348
F1.0
sS'velde'
p349
F1.0
sS'hispanics'
p350
F0.5
sS'tentacle'
p351
F1.0
sS'wholesalers'
p352
F0.5
sS'they'
p353
F0.08846153846153847
sS'schools'
p354
F0.35714285714285715
sS'norfolk'
p355
F1.0
sS'township'
p356
F0.2
sS'jesus'
p357
F0.25
sS'silver'
p358
F0.2
sS'bank'
p359
F0.18421052631578946
sS'structural'
p360
F0.5
sS'luzerne'
p361
F0.5
sS'represents'
p362
F0.2222222222222222
sS'autoadvice'
p363
F0.5
sS'rocky'
p364
F0.5
sS'bosnia'
p365
F1.0
sS'tampering'
p366
F0.16666666666666666
sS'sleepless'
p367
F1.0
sS'arrested'
p368
F0.1864406779661017
sS'detroit'
p369
F0.5
sS'districts'
p370
F1.0
sS'mccall'
p371
F0.25
sS'victory'
p372
F0.2
sS'novellus'
p373
F1.0
sS'each'
p374
F0.09523809523809523
sS'went'
p375
F0.14814814814814814
sS'carlos'
p376
F0.5
sS'mean'
p377
F0.2
sS'expectancy'
p378
F1.0
sS'wariness'
p379
F0.3333333333333333
sS'correctional'
p380
F1.0
sS'financial'
p381
F0.06976744186046512
sS'telescope'
p382
F1.0
sS'jillian'
p383
F1.0
sS'concord'
p384
F1.0
sS'diana'
p385
F0.5
sS'venue'
p386
F0.3333333333333333
sS'paedophile'
p387
F1.0
sS'diane'
p388
F1.0
sS'allan'
p389
F0.5
sS'carolina'
p390
F0.16666666666666666
sS'solutia'
p391
F1.0
sS'disappointing'
p392
F0.5
sS'trading'
p393
F0.23595505617977527
sS'rovers'
p394
F1.0
sS'aids'
p395
F0.2222222222222222
sS'ratepayers'
p396
F0.5
sS'easing'
p397
F0.3333333333333333
sS'saturday'
p398
F0.15384615384615385
sS'rt'
p399
F1.0
sS'klarman'
p400
F1.0
sS'overcame'
p401
F1.0
sS'goh'
p402
F0.5
sS'rr'
p403
F0.8333333333333334
sS'akron'
p404
F0.5
sS'god'
p405
F0.2
sS'views'
p406
F0.3333333333333333
sS'897'
p407
F1.0
sS'washed'
p408
F0.5
sS'tomorrow'
p409
F0.1111111111111111
sS'particles'
p410
F1.0
sS're'
p411
F0.14893617021276595
sS'laid'
p412
F0.5
sS'daniel'
p413
F0.7142857142857143
sS'remorse'
p414
F0.5
sS'medicine'
p415
F0.07692307692307693
sS'got'
p416
F0.07142857142857142
sS'ciner'
p417
F1.0
sS'gov'
p418
F0.2631578947368421
sS'sliding'
p419
F0.3333333333333333
sS'independence'
p420
F0.25
sS'cibc'
p421
F1.0
sS'arizona'
p422
F0.16666666666666666
sS'dharma'
p423
F1.0
sS'merchandising'
p424
F0.3333333333333333
sS'barrier'
p425
F1.0
sS'associate'
p426
F1.0
sS'certifies'
p427
F1.0
sS'herman'
p428
F1.0
sS'cholesterol'
p429
F0.3333333333333333
sS'threatened'
p430
F0.36363636363636365
sS'little'
p431
F0.2222222222222222
sS'free'
p432
F0.08108108108108109
sS'standard'
p433
F0.2676056338028169
sS'aboriginal'
p434
F1.0
sS'ancient'
p435
F0.6
sS'egyptians'
p436
F1.0
sS'might'
p437
F0.06666666666666667
sS'estimate'
p438
F0.42857142857142855
sS'wanted'
p439
F0.24
sS'storm'
p440
F0.36363636363636365
sS'widespread'
p441
F0.2
sS'renee'
p442
F0.5
sS'suvs'
p443
F0.5
sS'logging'
p444
F0.5
sS'recovering'
p445
F0.25
sS'didn'
p446
F0.05
sS'starts'
p447
F0.6
sS'chirac'
p448
F0.6666666666666666
sS'messages'
p449
F0.2
sS'days'
p450
F0.13636363636363635
sS'priorities'
p451
F0.5
sS'pence'
p452
F0.25
sS'levels'
p453
F0.07142857142857142
sS'exemptions'
p454
F1.0
sS'parked'
p455
F0.5
sS'1970s'
p456
F1.0
sS'medicaid'
p457
F0.25
sS'scheme'
p458
F0.5
sS'manslaughter'
p459
F1.0
sS'speeds'
p460
F1.0
sS'stewart'
p461
F0.07692307692307693
sS'inspectors'
p462
F0.2857142857142857
sS'artistry'
p463
F1.0
sS'industrial'
p464
F0.5957446808510638
sS'features'
p465
F0.07142857142857142
sS'economists'
p466
F0.2
sS'aeronautics'
p467
F1.0
sS'sentence'
p468
F0.25
sS'overtaken'
p469
F1.0
sS'646'
p470
F0.3333333333333333
sS'primary'
p471
F0.3333333333333333
sS'hearing'
p472
F0.2857142857142857
sS'sept'
p473
F0.13043478260869565
sS'hutzel'
p474
F1.0
sS'another'
p475
F0.07352941176470588
sS'wasn'
p476
F0.2
sS'insulation'
p477
F1.0
sS'yukio'
p478
F1.0
sS'clarity'
p479
F1.0
sS'mcdevitt'
p480
F1.0
sS'carson'
p481
F0.5
sS'mukhlas'
p482
F1.0
sS'3200'
p483
F1.0
sS'ten'
p484
F0.2
sS'service'
p485
F0.18181818181818182
sS'top'
p486
F0.1111111111111111
sS'deutsch'
p487
F0.5
sS'girls'
p488
F0.2
sS'sumatra'
p489
F1.0
sS'approximately'
p490
F0.25
sS'fiction'
p491
F0.5
sS'gammerman'
p492
F0.3333333333333333
sS'rates'
p493
F0.25
sS'too'
p494
F0.11538461538461539
sS'tom'
p495
F0.4166666666666667
sS'heatley'
p496
F1.0
sS'ordered'
p497
F0.23809523809523808
sS'euro'
p498
F0.56
sS'damaging'
p499
F0.5
sS'hewitt'
p500
F0.16666666666666666
sS'chanted'
p501
F0.5
sS'ceiling'
p502
F1.0
sS'murder'
p503
F0.25
sS'estrada'
p504
F1.0
sS'centered'
p505
F0.4
sS'tool'
p506
F0.125
sS'gambled'
p507
F1.0
sS'serve'
p508
F0.5
sS'took'
p509
F0.1875
sS'direct'
p510
F0.14285714285714285
sS'bridges'
p511
F0.5
sS'palestine'
p512
F0.5
sS'bailey'
p513
F1.0
sS'western'
p514
F0.3
sS'laws'
p515
F0.13333333333333333
sS'innocent'
p516
F0.1111111111111111
sS'durst'
p517
F0.5
sS'bloodsworth'
p518
F0.5
sS'peculiar'
p519
F1.0
sS'begins'
p520
F1.0
sS'ahmed'
p521
F0.5
sS'cure'
p522
F1.0
sS'guild'
p523
F1.0
sS'isaf'
p524
F1.0
sS'showed'
p525
F0.09523809523809523
sS'kilpatrick'
p526
F0.2
sS'studdard'
p527
F1.0
sS'database'
p528
F0.5
sS'zero'
p529
F0.25
sS'us10yt'
p530
F0.5714285714285714
sS'nations'
p531
F0.0625
sS'bragdon'
p532
F0.6666666666666666
sS'pneumonia'
p533
F0.5
sS'solomon'
p534
F0.3333333333333333
sS'street'
p535
F0.16666666666666666
sS'expo'
p536
F1.0
sS'williams'
p537
F0.07142857142857142
sS'pinellas'
p538
F1.0
sS'bodyguards'
p539
F1.0
sS'feeling'
p540
F0.6
sS'powers'
p541
F0.125
sS'minus'
p542
F0.4
sS'acquisition'
p543
F0.16666666666666666
sS'pervasive'
p544
F1.0
sS'fashion'
p545
F1.0
sS'ran'
p546
F0.1
sS'boston'
p547
F0.13333333333333333
sS'modern'
p548
F1.0
sS'raj'
p549
F1.0
sS'mine'
p550
F0.5
sS'msimang'
p551
F1.0
sS'talking'
p552
F0.1111111111111111
sS'seed'
p553
F0.5
sS'portal'
p554
F0.5
sS'seen'
p555
F0.17391304347826086
sS'seem'
p556
F0.3333333333333333
sS'seek'
p557
F0.3333333333333333
sS'botswana'
p558
F0.3333333333333333
sS'alive'
p559
F1.0
sS'dozen'
p560
F0.09090909090909091
sS'affairs'
p561
F0.42857142857142855
sS'sterile'
p562
F0.25
sS'escalator'
p563
F1.0
sS'concrete'
p564
F0.2
sS'thornton'
p565
F0.3333333333333333
sS'rudolph'
p566
F0.5
sS'1960'
p567
F0.25
sS'snow'
p568
F0.125
sS'sugden'
p569
F1.0
sS'investment'
p570
F0.13333333333333333
sS'connelly'
p571
F1.0
sS'sound'
p572
F0.4
sS'client'
p573
F0.1875
sS'schleswig'
p574
F1.0
sS'forces'
p575
F0.21052631578947367
sS'marjorie'
p576
F0.5
sS'quicken'
p577
F1.0
sS'dragged'
p578
F0.16666666666666666
sS'quarterback'
p579
F1.0
sS'subpoena'
p580
F0.25
sS'memory'
p581
F0.125
sS'iraqis'
p582
F0.09090909090909091
sS'detained'
p583
F0.2
sS'though'
p584
F0.05555555555555555
sS'bruce'
p585
F0.6666666666666666
sS'distraction'
p586
F1.0
sS'wells'
p587
F0.2
sS'exercised'
p588
F0.5
sS'regular'
p589
F0.25
sS'testicular'
p590
F1.0
sS'hatab'
p591
F1.0
sS'letter'
p592
F0.10526315789473684
sS'evangelism'
p593
F1.0
sS'autopsy'
p594
F0.75
sS'alabama'
p595
F0.4
sS'germans'
p596
F1.0
sS'maria'
p597
F0.5
sS'broadcast'
p598
F0.14285714285714285
sS'singer'
p599
F0.3333333333333333
sS'mediaq'
p600
F0.5
sS'don'
p601
F0.13157894736842105
sS'observation'
p602
F1.0
sS'rogers'
p603
F0.5
sS'antitrust'
p604
F0.25
sS'elections'
p605
F0.07142857142857142
sS'medical'
p606
F0.25
sS'camp'
p607
F0.3333333333333333
sS'm'
p608
F0.20253164556962025
sS'dog'
p609
F0.6
sS'crowd'
p610
F0.375
sS'musical'
p611
F0.5
sS'slipknot'
p612
F1.0
sS'missed'
p613
F0.5
sS'trapped'
p614
F0.2
sS'accounted'
p615
F0.6666666666666666
sS'tech'
p616
F0.21428571428571427
sS'prevention'
p617
F0.3333333333333333
sS'rakhmonov'
p618
F1.0
sS'enterprise'
p619
F0.16666666666666666
sS'chris'
p620
F0.25
sS'dos'
p621
F0.5
sS'left'
p622
F0.2127659574468085
sS'consumer'
p623
F0.19047619047619047
sS'dow'
p624
F0.5882352941176471
sS'came'
p625
F0.10869565217391304
sS'reserve'
p626
F0.25
sS'saying'
p627
F0.10204081632653061
sS'signatures'
p628
F0.2857142857142857
sS'bomb'
p629
F0.13636363636363635
sS'inmates'
p630
F0.3333333333333333
sS'hunger'
p631
F0.5
sS'meetings'
p632
F0.5
sS'labels'
p633
F0.3333333333333333
sS'teresa'
p634
F1.0
sS'nec'
p635
F0.3333333333333333
sS'attempts'
p636
F0.25
sS'radio'
p637
F0.2
sS'solutions'
p638
F0.09090909090909091
sS'fooled'
p639
F1.0
sS'earth'
p640
F0.3333333333333333
sS'thickness'
p641
F0.5
sS'bail'
p642
F0.18181818181818182
sS'ghozi'
p643
F0.25
sS'make'
p644
F0.125
sS'northeast'
p645
F0.42857142857142855
sS'soldier'
p646
F0.3333333333333333
sS'proposed'
p647
F0.2631578947368421
sS'implementation'
p648
F1.0
sS'698'
p649
F1.0
sS'debts'
p650
F0.5
sS'vacation'
p651
F1.0
sS'universal'
p652
F0.25
sS'bush'
p653
F0.24390243902439024
sS'rich'
p654
F0.3333333333333333
sS'announce'
p655
F0.125
sS'boyfriend'
p656
F0.6666666666666666
sS'grand'
p657
F0.14285714285714285
sS'oct'
p658
F0.14285714285714285
sS'wearing'
p659
F0.3333333333333333
sS'monica'
p660
F0.5
sS'tiles'
p661
F1.0
sS'mixture'
p662
F1.0
sS'above'
p663
F0.05263157894736842
sS'klein'
p664
F0.5
sS'lucent'
p665
F0.16666666666666666
sS'chaney'
p666
F1.0
sS'air'
p667
F0.1590909090909091
sS'honda'
p668
F0.3333333333333333
sS'stop'
p669
F0.13043478260869565
sS'13'
p670
F0.16666666666666666
sS'coast'
p671
F0.14285714285714285
sS'ecologist'
p672
F1.0
sS'cracks'
p673
F0.6666666666666666
sS'lenders'
p674
F1.0
sS'downtime'
p675
F0.5
sS'report'
p676
F0.25675675675675674
sS'dr'
p677
F0.34375
sS'comply'
p678
F0.3333333333333333
sS'hall'
p679
F0.1111111111111111
sS'bat'
p680
F0.2
sS'bar'
p681
F0.2857142857142857
sS'emc'
p682
F0.25
sS'countries'
p683
F0.2777777777777778
sS'politician'
p684
F1.0
sS'goodrum'
p685
F1.0
sS'baz'
p686
F0.5
sS'shape'
p687
F0.3333333333333333
sS'bay'
p688
F0.45454545454545453
sS'twice'
p689
F0.13333333333333333
sS'bad'
p690
F0.1111111111111111
sS'puget'
p691
F1.0
sS'ban'
p692
F0.3333333333333333
sS'bam'
p693
F1.0
sS'secretary'
p694
F0.21621621621621623
sS'respond'
p695
F0.2857142857142857
sS'054'
p696
F1.0
sS'disaster'
p697
F0.3
sS'reference'
p698
F0.14285714285714285
sS'tvt'
p699
F0.5
sS'exonerated'
p700
F0.3333333333333333
sS'testing'
p701
F0.125
sS'hasn'
p702
F0.3333333333333333
sS'infectious'
p703
F0.5
sS'observed'
p704
F1.0
sS'facts'
p705
F0.3333333333333333
sS'decided'
p706
F0.17647058823529413
sS'result'
p707
F0.08333333333333333
sS'mahmoud'
p708
F0.25
sS'erika'
p709
F0.5
sS'christian'
p710
F0.3
sS'resigned'
p711
F0.14285714285714285
sS'best'
p712
F0.1875
sS'subject'
p713
F0.1111111111111111
sS'02'
p714
F0.07692307692307693
sS'outbreak'
p715
F0.2
sS'said'
p716
F0.16666666666666666
sS'capacity'
p717
F0.6666666666666666
sS'07'
p718
F0.16666666666666666
sS'away'
p719
F0.10344827586206896
sS'09'
p720
F0.15384615384615385
sS'rings'
p721
F1.0
sS'sweden'
p722
F0.25
sS'injuries'
p723
F0.14285714285714285
sS'grandmother'
p724
F0.3333333333333333
sS'brolin'
p725
F0.3333333333333333
sS'tainted'
p726
F1.0
sS'368'
p727
F1.0
sS'deputies'
p728
F0.25
sS'lipa'
p729
F1.0
sS'dittemore'
p730
F1.0
sS'warrior'
p731
F1.0
sS'we'
p732
F0.19282511210762332
sS'never'
p733
F0.17142857142857143
sS'hundred'
p734
F0.5
sS'nationwide'
p735
F0.14285714285714285
sS'blaster'
p736
F1.0
sS'felony'
p737
F1.0
sS'mcbride'
p738
F0.3333333333333333
sS'weak'
p739
F0.16666666666666666
sS'however'
p740
F0.038461538461538464
sS'boise'
p741
F0.5
sS'southeast'
p742
F0.3333333333333333
sS'retirement'
p743
F0.5
sS'drew'
p744
F0.14285714285714285
sS'downgrade'
p745
F0.3333333333333333
sS'news'
p746
F0.15384615384615385
sS'picking'
p747
F1.0
sS'debt'
p748
F0.5
sS'downgraded'
p749
F0.3333333333333333
sS'arthritis'
p750
F0.25
sS'improve'
p751
F0.1111111111111111
sS'suggested'
p752
F0.16666666666666666
sS'received'
p753
F0.13793103448275862
sS'climate'
p754
F0.25
sS'accident'
p755
F0.35714285714285715
sS'sanitation'
p756
F1.0
sS'met'
p757
F0.21428571428571427
sS'country'
p758
F0.17857142857142858
sS'ncaa'
p759
F1.0
sS'heating'
p760
F0.3333333333333333
sS'against'
p761
F0.2358490566037736
sS'players'
p762
F0.42857142857142855
sS'varian'
p763
F1.0
sS'moonves'
p764
F0.5
sS'planned'
p765
F0.2
sS'faces'
p766
F0.22727272727272727
sS'ernst'
p767
F0.3333333333333333
sS'requests'
p768
F0.25
sS'argue'
p769
F1.0
sS'com'
p770
F0.19047619047619047
sS'asked'
p771
F0.19444444444444445
sS'negotiation'
p772
F1.0
sS'standings'
p773
F1.0
sS'ethel'
p774
F0.5
sS'nweze'
p775
F1.0
sS'tong'
p776
F1.0
sS'appeared'
p777
F0.11764705882352941
sS'royal'
p778
F0.2727272727272727
sS'irresponsible'
p779
F0.5
sS'trunk'
p780
F1.0
sS'thierry'
p781
F1.0
sS'seizure'
p782
F0.25
sS'trickiest'
p783
F1.0
sS'102'
p784
F0.6666666666666666
sS'canyon'
p785
F0.42857142857142855
sS'massive'
p786
F0.16666666666666666
sS'initiative'
p787
F0.2857142857142857
sS'quinn'
p788
F0.6666666666666666
sS'affiliated'
p789
F1.0
sS'false'
p790
F0.18181818181818182
sS'250'
p791
F0.25
sS'trust'
p792
F0.16666666666666666
sS'apprehended'
p793
F0.5
sS'bureaucratic'
p794
F1.0
sS'armored'
p795
F0.375
sS'conference'
p796
F0.22
sS'iraq'
p797
F0.1728395061728395
sS'abdominal'
p798
F0.5
sS'basis'
p799
F0.5
sS'union'
p800
F0.3225806451612903
sS'claiming'
p801
F0.25
sS'three'
p802
F0.12295081967213115
sS'been'
p803
F0.13617021276595745
sS'commission'
p804
F0.325
sS'beer'
p805
F0.25
sS'much'
p806
F0.10714285714285714
sS'communion'
p807
F0.2
sS'interest'
p808
F0.13157894736842105
sS'expected'
p809
F0.22093023255813954
sS'entered'
p810
F0.16666666666666666
sS'dozens'
p811
F0.4
sS'pro'
p812
F0.1111111111111111
sS'sunnis'
p813
F0.25
sS'schindler'
p814
F0.5
sS'obese'
p815
F0.4
sS'life'
p816
F0.25
sS'hovan'
p817
F0.6666666666666666
sS'families'
p818
F0.36363636363636365
sS'crying'
p819
F0.6666666666666666
sS'eastern'
p820
F0.3333333333333333
sS'drugs'
p821
F0.2
sS'republicans'
p822
F0.2631578947368421
sS'900'
p823
F0.5
sS'rockland'
p824
F1.0
sS'substance'
p825
F0.5
sS'tapping'
p826
F1.0
sS'echostar'
p827
F0.5
sS'child'
p828
F0.09090909090909091
sS'cgt'
p829
F0.5
sS'aviation'
p830
F0.3333333333333333
sS'worked'
p831
F0.21428571428571427
sS'spin'
p832
F0.6666666666666666
sS'norgay'
p833
F1.0
sS'chill'
p834
F1.0
sS'mcclendon'
p835
F1.0
sS'commerce'
p836
F0.16666666666666666
sS'save'
p837
F0.3333333333333333
sS'intending'
p838
F1.0
sS'aix'
p839
F0.5
sS'presidency'
p840
F0.5
sS'casals'
p841
F1.0
sS'smiledge'
p842
F1.0
sS'lessen'
p843
F0.5
sS'economies'
p844
F1.0
sS'kentucky'
p845
F0.6666666666666666
sS'n'
p846
F0.0625
sS'information'
p847
F0.16666666666666666
sS'near'
p848
F0.3170731707317073
sS'ain'
p849
F0.5
sS'appeals'
p850
F0.38095238095238093
sS'aid'
p851
F0.3333333333333333
sS'murders'
p852
F0.5
sS'k'
p853
F0.4
sS'procedure'
p854
F0.2
sS'mistake'
p855
F0.5
sS'biotech'
p856
F0.25
sS'seven'
p857
F0.24242424242424243
sS'vulnerability'
p858
F0.4
sS'uganda'
p859
F0.2222222222222222
sS'metropolitan'
p860
F0.6666666666666666
sS'played'
p861
F0.5
sS'is'
p862
F0.15353260869565216
sS'dumped'
p863
F1.0
sS'iu'
p864
F1.0
sS'it'
p865
F0.131175468483816
sS'defeated'
p866
F0.16666666666666666
sS'expenses'
p867
F0.3333333333333333
sS'player'
p868
F0.125
sS'experts'
p869
F0.05
sS'late'
p870
F0.13333333333333333
sS'in'
p871
F0.21480582524271843
sS'vendor'
p872
F0.5
sS'indigenous'
p873
F0.5
sS'seattle'
p874
F0.16666666666666666
sS'ie'
p875
F0.16666666666666666
sS'if'
p876
F0.1559633027522936
sS'grown'
p877
F0.2
sS'damaged'
p878
F0.5
sS'pathfinder'
p879
F1.0
sS'stella'
p880
F1.0
sS'things'
p881
F0.3076923076923077
sS'intended'
p882
F0.3
sS'wound'
p883
F0.3333333333333333
sS'amount'
p884
F0.2
sS'debuted'
p885
F0.5
sS'complex'
p886
F0.25
sS'damages'
p887
F0.6153846153846154
sS'mahmud'
p888
F0.5
sS'marce'
p889
F1.0
sS'success'
p890
F0.5
sS'indictment'
p891
F0.36363636363636365
sS'european'
p892
F0.23076923076923078
sS'meets'
p893
F0.5
sS'satellite'
p894
F0.5
sS'raid'
p895
F0.125
sS'chrysler'
p896
F0.3333333333333333
sS'typhoid'
p897
F1.0
sS'published'
p898
F0.09090909090909091
sS'126th'
p899
F1.0
sS'opulent'
p900
F1.0
sS'hand'
p901
F0.14285714285714285
sS'liberties'
p902
F0.3333333333333333
sS'photographers'
p903
F1.0
sS'producers'
p904
F0.16666666666666666
sS'scale'
p905
F0.2857142857142857
sS'dark'
p906
F0.3333333333333333
sS'investments'
p907
F0.3333333333333333
sS'opportunity'
p908
F0.25
sS'blamed'
p909
F0.09090909090909091
sS'understand'
p910
F0.1111111111111111
sS'butter'
p911
F0.5
sS'shortly'
p912
F0.25
sS'lucas'
p913
F1.0
sS'scenario'
p914
F0.5
sS'programs'
p915
F0.058823529411764705
sS'1977'
p916
F0.5
sS'1976'
p917
F0.5
sS'failing'
p918
F0.16666666666666666
sS'linksys'
p919
F1.0
sS'expectation'
p920
F0.3333333333333333
sS'warburg'
p921
F1.0
sS'hispanic'
p922
F0.6666666666666666
sS'savings'
p923
F0.14285714285714285
sS'academia'
p924
F1.0
sS'impediment'
p925
F1.0
sS'greatest'
p926
F0.25
sS'protesters'
p927
F0.6666666666666666
sS'mother'
p928
F0.15
sS'telephone'
p929
F0.125
sS'claims'
p930
F0.125
sS'the'
p931
F0.28196431204837047
sS'800'
p932
F0.16666666666666666
sS'corporate'
p933
F0.0625
sS'spencer'
p934
F0.4
sS'plaque'
p935
F0.5
sS'outnumbered'
p936
F0.8
sS'burrell'
p937
F1.0
sS'solaris'
p938
F0.3333333333333333
sS'foreigners'
p939
F0.5
sS'just'
p940
F0.07936507936507936
sS'unemployment'
p941
F0.6923076923076923
sS'athletic'
p942
F0.5
sS'photo'
p943
F0.25
sS'newton'
p944
F1.0
sS'yee'
p945
F1.0
sS'starting'
p946
F0.14285714285714285
sS'assigned'
p947
F0.25
sS'disguise'
p948
F1.0
sS'fighters'
p949
F0.2
sS'identify'
p950
F0.125
sS'purchasing'
p951
F0.3333333333333333
sS'human'
p952
F0.2222222222222222
sS'campbell'
p953
F0.16666666666666666
sS'waves'
p954
F1.0
sS'entrenched'
p955
F1.0
sS'thyroid'
p956
F1.0
sS'adding'
p957
F0.125
sS'monitored'
p958
F0.5
sS'candidate'
p959
F0.2
sS'photographer'
p960
F1.0
sS'assassination'
p961
F0.5
sS'had'
p962
F0.14958448753462603
sS'patching'
p963
F0.5
sS'pharmacy'
p964
F1.0
sS'basement'
p965
F1.0
sS'wright'
p966
F0.5
sS'shout'
p967
F1.0
sS'spread'
p968
F0.4
sS'unwanted'
p969
F0.5
sS'board'
p970
F0.2222222222222222
sS'justices'
p971
F0.07692307692307693
sS'prison'
p972
F0.23809523809523808
sS'supervisor'
p973
F0.5
sS'has'
p974
F0.13013698630136986
sS'hat'
p975
F0.3333333333333333
sS'touchdowns'
p976
F1.0
sS'mortazavi'
p977
F1.0
sS'opt'
p978
F1.0
sS'threatens'
p979
F0.25
sS'popovich'
p980
F1.0
sS'romano'
p981
F1.0
sS'municipal'
p982
F0.25
sS'gregg'
p983
F1.0
sS'posed'
p984
F0.5
sS'possible'
p985
F0.14285714285714285
sS'arab'
p986
F0.25
sS'possibly'
p987
F0.8
sS'gustaf'
p988
F1.0
sS'awadallah'
p989
F1.0
sS'austreng'
p990
F1.0
sS'birth'
p991
F0.3333333333333333
sS'30'
p992
F0.28735632183908044
sS'judge'
p993
F0.109375
sS'firmed'
p994
F1.0
sS'burns'
p995
F0.5
sS'detector'
p996
F0.5
sS'advanced'
p997
F0.18181818181818182
sS'occurring'
p998
F1.0
sS'shoulder'
p999
F0.16666666666666666
sS'affidavit'
p1000
F0.16666666666666666
sS'58'
p1001
F0.125
sS'55'
p1002
F0.25
sS'54'
p1003
F0.16666666666666666
sS'57'
p1004
F0.06666666666666667
sS'hunt'
p1005
F0.25
sS'51'
p1006
F0.10714285714285714
sS'50'
p1007
F0.16981132075471697
sS'53'
p1008
F0.17647058823529413
sS'52'
p1009
F0.16666666666666666
sS'securities'
p1010
F0.2
sS'offices'
p1011
F0.25
sS'officer'
p1012
F0.2
sS'islam'
p1013
F0.25
sS'night'
p1014
F0.1111111111111111
sS'security'
p1015
F0.15625
sS'201'
p1016
F1.0
sS'attorney'
p1017
F0.26229508196721313
sS'right'
p1018
F0.17647058823529413
sS'dean'
p1019
F0.3333333333333333
sS'creek'
p1020
F0.25
sS'deal'
p1021
F0.08888888888888889
sS'people'
p1022
F0.16847826086956522
sS'staff'
p1023
F0.2692307692307692
sS'crown'
p1024
F0.5
sS'eelam'
p1025
F0.5
sS'dead'
p1026
F0.09090909090909091
sS'jennifer'
p1027
F0.3333333333333333
sS'returning'
p1028
F0.14285714285714285
sS'malaysia'
p1029
F0.2
sS'donald'
p1030
F0.16666666666666666
sS'stardust'
p1031
F1.0
sS'election'
p1032
F0.2631578947368421
sS'winds'
p1033
F0.1111111111111111
sS'extended'
p1034
F0.3333333333333333
sS'repeated'
p1035
F0.25
sS'specific'
p1036
F0.16666666666666666
sS'for'
p1037
F0.1758130081300813
sS'desailly'
p1038
F1.0
sS'purple'
p1039
F1.0
sS'notification'
p1040
F0.3333333333333333
sS'deploy'
p1041
F0.5
sS'icf'
p1042
F1.0
sS'comments'
p1043
F0.3333333333333333
sS'everything'
p1044
F0.125
sS'ropeik'
p1045
F1.0
sS'segregated'
p1046
F1.0
sS'musharraf'
p1047
F1.0
sS'instruments'
p1048
F0.5
sS'denied'
p1049
F0.4
sS'condit'
p1050
F0.3333333333333333
sS'beating'
p1051
F0.25
sS'425'
p1052
F1.0
sS'price'
p1053
F0.3333333333333333
sS'2040'
p1054
F0.5
sS'sensationalism'
p1055
F0.6666666666666666
sS'marketing'
p1056
F0.16666666666666666
sS'burn'
p1057
F0.5
sS'conventional'
p1058
F0.25
sS'decisions'
p1059
F0.375
sS'discount'
p1060
F1.0
sS'sift'
p1061
F0.5
sS'criminals'
p1062
F1.0
sS'corp'
p1063
F0.17647058823529413
sS'starring'
p1064
F0.25
sS'losing'
p1065
F0.2222222222222222
sS'episcopalian'
p1066
F1.0
sS'post'
p1067
F0.3333333333333333
sS'manufacturing'
p1068
F0.15384615384615385
sS'super'
p1069
F0.3333333333333333
sS'highway'
p1070
F0.4
sS'bondeson'
p1071
F1.0
sS'census'
p1072
F0.3333333333333333
sS'yelling'
p1073
F1.0
sS'obi'
p1074
F1.0
sS'attacks'
p1075
F0.08333333333333333
sS'theirs'
p1076
F1.0
sS'dulmatin'
p1077
F1.0
sS'months'
p1078
F0.08
sS'shield'
p1079
F0.5
sS'o'
p1080
F0.047619047619047616
sS'costs'
p1081
F0.22727272727272727
sS'bruises'
p1082
F1.0
sS'magazine'
p1083
F0.2857142857142857
sS'jenifer'
p1084
F1.0
sS'afternoon'
p1085
F0.06451612903225806
sS'horizon'
p1086
F0.5
sS'mahoney'
p1087
F1.0
sS'connected'
p1088
F0.16666666666666666
sS'efforts'
p1089
F0.09090909090909091
sS'palestinians'
p1090
F1.0
sS'slightly'
p1091
F0.17647058823529413
sS'bannon'
p1092
F1.0
sS'jacques'
p1093
F0.6666666666666666
sS'dangerous'
p1094
F0.25
sS'idec'
p1095
F1.0
sS'consulting'
p1096
F1.0
sS'farrell'
p1097
F1.0
sS'statements'
p1098
F0.2857142857142857
sS'facility'
p1099
F0.3333333333333333
sS'yen'
p1100
F0.41379310344827586
sS'losyukov'
p1101
F1.0
sS'bound'
p1102
F0.375
sS'son'
p1103
F0.125
sS'down'
p1104
F0.12878787878787878
sS'lies'
p1105
F0.3333333333333333
sS'donated'
p1106
F0.5
sS'assaulted'
p1107
F0.3333333333333333
sS'mcclintock'
p1108
F1.0
sS'hospice'
p1109
F0.5
sS'old'
p1110
F0.1780821917808219
sS'rounds'
p1111
F0.25
sS'often'
p1112
F0.0625
sS'east'
p1113
F0.21052631578947367
sS'cleared'
p1114
F0.1111111111111111
sS'peoples'
p1115
F0.5
sS'real'
p1116
F0.125
sS'vaccination'
p1117
F0.25
sS'transcript'
p1118
F0.5
sS'support'
p1119
F0.1276595744680851
sS'initial'
p1120
F0.1111111111111111
sS'legislation'
p1121
F0.12
sS'sovereign'
p1122
F0.6666666666666666
sS'malvo'
p1123
F0.1111111111111111
sS'raped'
p1124
F0.6666666666666666
sS'gig'
p1125
F1.0
sS'absolutely'
p1126
F0.16666666666666666
sS'anderson'
p1127
F0.3333333333333333
sS'joseph'
p1128
F0.2857142857142857
sS'editor'
p1129
F0.8333333333333334
sS'way'
p1130
F0.1282051282051282
sS'crews'
p1131
F0.5
sS'astrophysics'
p1132
F1.0
sS'call'
p1133
F0.2826086956521739
sS'bolivia'
p1134
F1.0
sS'was'
p1135
F0.19155844155844157
sS'war'
p1136
F0.1896551724137931
sS'therefore'
p1137
F0.5
sS'lowest'
p1138
F0.16666666666666666
sS'head'
p1139
F0.28
sS'lowe'
p1140
F0.25
sS'amateur'
p1141
F1.0
sS'form'
p1142
F0.2222222222222222
sS'offer'
p1143
F0.17391304347826086
sS'understandably'
p1144
F0.5
sS'tigers'
p1145
F0.5
sS'fireworks'
p1146
F0.5
sS'sickest'
p1147
F1.0
sS'landing'
p1148
F0.6
sS'ford'
p1149
F0.25
sS'wireless'
p1150
F0.08333333333333333
sS'failure'
p1151
F0.2
sS'heat'
p1152
F0.3333333333333333
sS'hear'
p1153
F0.14285714285714285
sS'elderly'
p1154
F0.3333333333333333
sS'palmetto'
p1155
F1.0
sS'sustained'
p1156
F0.14285714285714285
sS'stand'
p1157
F0.16666666666666666
sS'true'
p1158
F0.2
sS'analyst'
p1159
F0.25
sS'fort'
p1160
F0.18181818181818182
sS'again'
p1161
F0.030303030303030304
sS'counsel'
p1162
F0.125
sS'suspect'
p1163
F0.38461538461538464
sS'portions'
p1164
F1.0
sS'happen'
p1165
F0.3333333333333333
sS'streaming'
p1166
F0.5
sS'caution'
p1167
F0.5
sS'ridge'
p1168
F0.2
sS'staged'
p1169
F1.0
sS'maximum'
p1170
F0.36363636363636365
sS'modesto'
p1171
F1.0
sS'until'
p1172
F0.16363636363636364
sS'adora'
p1173
F1.0
sS'dick'
p1174
F0.3333333333333333
sS'complaint'
p1175
F0.14285714285714285
sS'minor'
p1176
F0.6
sS'nefertiti'
p1177
F1.0
sS'smashed'
p1178
F0.5
sS'agriculture'
p1179
F0.35714285714285715
sS'diagnose'
p1180
F1.0
sS'passenger'
p1181
F0.1111111111111111
sS'promises'
p1182
F0.3333333333333333
sS'proud'
p1183
F0.75
sS'liberal'
p1184
F1.0
sS'moore'
p1185
F0.23076923076923078
sS'estonia'
p1186
F0.5
sS'participants'
p1187
F1.0
sS'wyle'
p1188
F0.5
sS'tournament'
p1189
F0.25
sS'headache'
p1190
F1.0
sS'textbook'
p1191
F1.0
sS'evidence'
p1192
F0.08571428571428572
sS'restore'
p1193
F0.5
sS'policy'
p1194
F0.0967741935483871
sS'rouge'
p1195
F0.5
sS'accounting'
p1196
F0.2
sS'floating'
p1197
F0.5
sS'ericsson'
p1198
F0.3333333333333333
sS'trip'
p1199
F0.16666666666666666
sS'negotiations'
p1200
F0.16666666666666666
sS'regime'
p1201
F0.2
sS'palestinian'
p1202
F0.08333333333333333
sS'marking'
p1203
F0.25
sS'dotted'
p1204
F0.5
sS'no'
p1205
F0.14705882352941177
sS'generally'
p1206
F0.4
sS'handed'
p1207
F0.3333333333333333
sS'reality'
p1208
F0.5
sS'negotiators'
p1209
F0.25
sS'successful'
p1210
F0.14285714285714285
sS'interested'
p1211
F0.3333333333333333
sS'role'
p1212
F0.1875
sS'airlines'
p1213
F0.2857142857142857
sS'papers'
p1214
F0.4
sS'veneman'
p1215
F0.25
sS'vegetative'
p1216
F1.0
sS'depot'
p1217
F0.2222222222222222
sS'nt'
p1218
F0.6666666666666666
sS'realize'
p1219
F0.3333333333333333
sS'phoenix'
p1220
F0.7
sS'savage'
p1221
F0.6666666666666666
sS'helps'
p1222
F0.3333333333333333
sS'080'
p1223
F1.0
sS'update'
p1224
F0.2
sS'genentech'
p1225
F0.4
sS'unwell'
p1226
F1.0
sS'shumaker'
p1227
F0.3333333333333333
sS'fell'
p1228
F0.2345679012345679
sS'invested'
p1229
F0.5
sS'sql'
p1230
F1.0
sS'authorities'
p1231
F0.17543859649122806
sS'transfers'
p1232
F0.3333333333333333
sS'aware'
p1233
F0.2
sS'weekend'
p1234
F0.16666666666666666
sS'mertel'
p1235
F1.0
sS'died'
p1236
F0.15217391304347827
sS'began'
p1237
F0.04
sS'billion'
p1238
F0.2900763358778626
sS'longer'
p1239
F0.25
sS'glass'
p1240
F0.4
sS'assume'
p1241
F0.6
sS'annuity'
p1242
F1.0
sS'changed'
p1243
F0.2727272727272727
sS'itar'
p1244
F0.5
sS'together'
p1245
F0.18181818181818182
sS'withhold'
p1246
F0.5
sS'icc'
p1247
F1.0
sS'premiums'
p1248
F0.3333333333333333
sS'vietnam'
p1249
F0.25
sS'time'
p1250
F0.14912280701754385
sS'landlady'
p1251
F1.0
sS'profits'
p1252
F0.375
sS'songs'
p1253
F0.5
sS'anglican'
p1254
F0.3333333333333333
sS'coach'
p1255
F0.5454545454545454
sS'japan'
p1256
F0.14285714285714285
sS'chain'
p1257
F0.1111111111111111
sS'diplomacy'
p1258
F0.5
sS'connectix'
p1259
F0.5
sS'bustamante'
p1260
F0.5
sS'focus'
p1261
F0.2857142857142857
sS'hawaii'
p1262
F0.25
sS'roy'
p1263
F1.0
sS'theaters'
p1264
F0.3333333333333333
sS'mile'
p1265
F0.4
sS'pingeon'
p1266
F1.0
sS'assailants'
p1267
F1.0
sS'battle'
p1268
F0.375
sS'colleen'
p1269
F1.0
sS'apollo'
p1270
F1.0
sS'bergin'
p1271
F1.0
sS'telemarketing'
p1272
F0.25
sS'row'
p1273
F0.3
sS'devoted'
p1274
F1.0
sS'certainly'
p1275
F0.16666666666666666
sS'suicide'
p1276
F0.0625
sS'basra'
p1277
F0.3333333333333333
sS'devalued'
p1278
F1.0
sS'marissa'
p1279
F0.5
sS'warning'
p1280
F0.1111111111111111
sS'flash'
p1281
F0.25
sS'father'
p1282
F0.17647058823529413
sS'blocking'
p1283
F0.5
sS'environment'
p1284
F0.2857142857142857
sS'iraqi'
p1285
F0.14814814814814814
sS'charge'
p1286
F0.1875
sS'praised'
p1287
F0.3333333333333333
sS'permanently'
p1288
F1.0
sS'97'
p1289
F0.16666666666666666
sS'suffered'
p1290
F0.4
sS'circumstances'
p1291
F0.25
sS'oversight'
p1292
F0.2
sS'816'
p1293
F1.0
sS'southwest'
p1294
F0.5
sS'shoot'
p1295
F0.2
sS'lobbying'
p1296
F0.5
sS'woodley'
p1297
F0.5
sS'federation'
p1298
F1.0
sS'kumar'
p1299
F1.0
sS'ginsburg'
p1300
F0.3333333333333333
sS'keeping'
p1301
F0.5
sS'vegas'
p1302
F0.375
sS'microprocessors'
p1303
F0.5
sS'lynch'
p1304
F0.4
sS'li'
p1305
F1.0
sS'trouble'
p1306
F0.75
sS'deirdre'
p1307
F0.5
sS'minute'
p1308
F0.25
sS'governments'
p1309
F0.2857142857142857
sS'airings'
p1310
F1.0
sS'porchia'
p1311
F1.0
sS'respiratory'
p1312
F0.3333333333333333
sS'staples'
p1313
F1.0
sS'level'
p1314
F0.20833333333333334
sS'did'
p1315
F0.12195121951219512
sS'philippines'
p1316
F0.25
sS'henri'
p1317
F0.6666666666666666
sS'registered'
p1318
F0.5
sS'democrat'
p1319
F0.3
sS'standards'
p1320
F0.18181818181818182
sS'leave'
p1321
F0.38095238095238093
sS'p'
p1322
F0.18518518518518517
sS'jordanian'
p1323
F0.5
sS'recall'
p1324
F0.07142857142857142
sS'guy'
p1325
F0.5
sS'round'
p1326
F0.5
sS'hickenlooper'
p1327
F1.0
sS'governing'
p1328
F0.25
sS'prevent'
p1329
F0.36363636363636365
sS'pork'
p1330
F0.3333333333333333
sS'talked'
p1331
F0.2857142857142857
sS'slower'
p1332
F0.5
sS'regret'
p1333
F0.25
sS'tougher'
p1334
F0.3333333333333333
sS'dealing'
p1335
F0.6666666666666666
sS'injunction'
p1336
F0.6
sS'columbus'
p1337
F0.4
sS'sign'
p1338
F0.23529411764705882
sS'cost'
p1339
F0.13793103448275862
sS'takeoff'
p1340
F1.0
sS'port'
p1341
F0.16666666666666666
sS'yang'
p1342
F0.5
sS'licenses'
p1343
F0.3333333333333333
sS'afghanistan'
p1344
F0.1111111111111111
sS'adds'
p1345
F0.3333333333333333
sS'constitution'
p1346
F0.375
sS'representative'
p1347
F0.125
sS'norris'
p1348
F1.0
sS'assistance'
p1349
F0.2857142857142857
sS'abdullah'
p1350
F0.3333333333333333
sS'groves'
p1351
F1.0
sS'shares'
p1352
F0.4
sS'monkeypox'
p1353
F1.0
sS'current'
p1354
F0.09090909090909091
sS'520'
p1355
F1.0
sS'scardino'
p1356
F1.0
sS'astrazeneca'
p1357
F0.5
sS'falling'
p1358
F0.3333333333333333
sS'appeal'
p1359
F0.09523809523809523
sS'boost'
p1360
F0.16666666666666666
sS'retroviral'
p1361
F1.0
sS'dotson'
p1362
F0.36363636363636365
sS'colgate'
p1363
F1.0
sS'explosion'
p1364
F0.375
sS'ms'
p1365
F0.05263157894736842
sS'1982'
p1366
F0.5
sS'passage'
p1367
F0.25
sS'funeral'
p1368
F0.3333333333333333
sS'kept'
p1369
F0.21428571428571427
sS'caretaker'
p1370
F0.5
sS'french'
p1371
F0.2727272727272727
sS'ratliff'
p1372
F0.6666666666666666
sS'water'
p1373
F0.12
sS'slow'
p1374
F0.2
sS'baseball'
p1375
F0.5
sS'groups'
p1376
F0.22727272727272727
sS'address'
p1377
F0.07142857142857142
sS'alone'
p1378
F0.3333333333333333
sS'along'
p1379
F0.16
sS'humphries'
p1380
F1.0
sS'teacher'
p1381
F0.14285714285714285
sS'change'
p1382
F0.18518518518518517
sS'box'
p1383
F0.3076923076923077
sS'passengers'
p1384
F0.1111111111111111
sS'dec'
p1385
F0.09090909090909091
sS'comptroller'
p1386
F0.2857142857142857
sS'thirty'
p1387
F0.3333333333333333
sS'battling'
p1388
F0.2
sS'institute'
p1389
F0.38461538461538464
sS'rethink'
p1390
F0.5
sS'navistar'
p1391
F1.0
sS'dixon'
p1392
F0.5
sS'shelia'
p1393
F1.0
sS'trial'
p1394
F0.18181818181818182
sS'chemical'
p1395
F0.16666666666666666
sS'franklin'
p1396
F0.25
sS'usually'
p1397
F0.3333333333333333
sS'bob'
p1398
F0.36363636363636365
sS'reis'
p1399
F0.5
sS'extinguishers'
p1400
F1.0
sS'boykin'
p1401
F0.3333333333333333
sS'shootings'
p1402
F0.2
sS'love'
p1403
F0.25
sS'saunders'
p1404
F0.5
sS'hiking'
p1405
F1.0
sS'extra'
p1406
F0.25
sS'lloyd'
p1407
F1.0
sS'pentium'
p1408
F0.5
sS'merely'
p1409
F1.0
sS'dioxin'
p1410
F1.0
sS'prefer'
p1411
F0.5
sS'corixa'
p1412
F0.75
sS'bloody'
p1413
F0.6666666666666666
sS'1st'
p1414
F0.5
sS'embarrassing'
p1415
F0.25
sS'fbi'
p1416
F0.1111111111111111
sS'crime'
p1417
F0.3333333333333333
sS'crisis'
p1418
F0.2857142857142857
sS'market'
p1419
F0.11688311688311688
sS'sky'
p1420
F0.2
sS'labs'
p1421
F0.5
sS'terminal'
p1422
F0.5
sS'troops'
p1423
F0.14705882352941177
sS'working'
p1424
F0.05263157894736842
sS'liberation'
p1425
F0.3333333333333333
sS'ariel'
p1426
F0.3333333333333333
sS'positive'
p1427
F0.25
sS'filters'
p1428
F0.6666666666666666
sS'visit'
p1429
F0.09523809523809523
sS'1967'
p1430
F1.0
sS'france'
p1431
F0.21739130434782608
sS'abbas'
p1432
F0.16666666666666666
sS'msn'
p1433
F0.25
sS'live'
p1434
F0.2
sS'going'
p1435
F0.02631578947368421
sS'upheld'
p1436
F0.6666666666666666
sS'vaccine'
p1437
F0.14285714285714285
sS'garton'
p1438
F0.5
sS'calgary'
p1439
F1.0
sS'enriched'
p1440
F1.0
sS'minnesota'
p1441
F0.25
sS'household'
p1442
F0.6
sS'today'
p1443
F0.10227272727272728
sS'commissioner'
p1444
F0.3333333333333333
sS'kerry'
p1445
F0.2222222222222222
sS'claudette'
p1446
F0.25
sS'threw'
p1447
F0.125
sS'flying'
p1448
F0.3333333333333333
sS'treasury'
p1449
F0.18181818181818182
sS'pipeline'
p1450
F0.2
sS'oregon'
p1451
F0.3333333333333333
sS'downtown'
p1452
F0.25
sS'thompson'
p1453
F0.2
sS'broadened'
p1454
F1.0
sS'cases'
p1455
F0.391304347826087
sS'effort'
p1456
F0.1875
sS'canadian'
p1457
F0.17647058823529413
sS'winding'
p1458
F1.0
sS'organizations'
p1459
F0.2857142857142857
sS'lapidus'
p1460
F1.0
sS'bakar'
p1461
F1.0
sS'tokyo'
p1462
F0.16666666666666666
sS'car'
p1463
F0.23809523809523808
sS'originally'
p1464
F0.14285714285714285
sS'millville'
p1465
F1.0
sS'abortion'
p1466
F0.25
sS'modified'
p1467
F0.25
sS'longitude'
p1468
F1.0
sS'cat'
p1469
F0.5
sS'flagship'
p1470
F0.3333333333333333
sS'bombmaker'
p1471
F1.0
sS'can'
p1472
F0.1875
sS'9th'
p1473
F0.5
sS'believed'
p1474
F0.2777777777777778
sS'making'
p1475
F0.1111111111111111
sS'arrive'
p1476
F0.5
sS'deceased'
p1477
F0.5
sS'social'
p1478
F0.25
sS'spx'
p1479
F0.10256410256410256
sS'heart'
p1480
F0.16666666666666666
sS'kyi'
p1481
F0.16666666666666666
sS'citizens'
p1482
F0.3333333333333333
sS'nursing'
p1483
F0.25
sS'figure'
p1484
F0.14285714285714285
sS'frogs'
p1485
F1.0
sS'december'
p1486
F0.16666666666666666
sS'chip'
p1487
F0.13636363636363635
sS'nascar'
p1488
F0.5
sS'heard'
p1489
F0.16666666666666666
sS'ntt'
p1490
F1.0
sS'performed'
p1491
F0.3333333333333333
sS'council'
p1492
F0.3103448275862069
sS'allowed'
p1493
F0.36363636363636365
sS'234'
p1494
F1.0
sS'odette'
p1495
F1.0
sS'occur'
p1496
F0.3333333333333333
sS'232'
p1497
F1.0
sS'mention'
p1498
F0.5
sS'swedish'
p1499
F0.25
sS'davidowitz'
p1500
F1.0
sS'rays'
p1501
F0.3333333333333333
sS'monitoring'
p1502
F0.5
sS'dialysis'
p1503
F0.5
sS'discussion'
p1504
F0.6666666666666666
sS'spreads'
p1505
F0.14285714285714285
sS'1'
p1506
F0.32167832167832167
sS'immune'
p1507
F0.5
sS'sunday'
p1508
F0.10714285714285714
sS'fourth'
p1509
F0.36363636363636365
sS'endorsement'
p1510
F0.5
sS'plus'
p1511
F0.18181818181818182
sS'coleman'
p1512
F0.5
sS'innings'
p1513
F1.0
sS'sworn'
p1514
F0.5
sS'economy'
p1515
F0.25
sS'lindberg'
p1516
F1.0
sS'landers'
p1517
F1.0
sS'designer'
p1518
F0.5
sS'crashes'
p1519
F1.0
sS'maturing'
p1520
F0.5
sS'may'
p1521
F0.11320754716981132
sS'max'
p1522
F0.25
sS'fed'
p1523
F0.25
sS'spot'
p1524
F0.6
sS'motorists'
p1525
F0.3333333333333333
sS'mosel'
p1526
F0.5
sS'applications'
p1527
F0.125
sS'mac'
p1528
F0.3333333333333333
sS'4th'
p1529
F1.0
sS'tipped'
p1530
F0.5
sS'designed'
p1531
F0.2
sS'bogden'
p1532
F1.0
sS'improving'
p1533
F0.3333333333333333
sS'such'
p1534
F0.07352941176470588
sS'heroes'
p1535
F1.0
sS'maj'
p1536
F0.3333333333333333
sS'data'
p1537
F0.13636363636363635
sS'compatibility'
p1538
F1.0
sS'mao'
p1539
F1.0
sS'man'
p1540
F0.14705882352941177
sS'emomali'
p1541
F1.0
sS'visitors'
p1542
F0.16666666666666666
sS'natural'
p1543
F0.16666666666666666
sS'neck'
p1544
F0.2857142857142857
sS'johnson'
p1545
F0.2222222222222222
sS'kbps'
p1546
F1.0
sS'futures'
p1547
F0.125
sS'mohsen'
p1548
F1.0
sS'yielding'
p1549
F1.0
sS'dwight'
p1550
F0.25
sS'gap'
p1551
F0.5
sS'jail'
p1552
F0.25
sS'silence'
p1553
F0.5
sS'swollen'
p1554
F0.5
sS'representation'
p1555
F1.0
sS'wolves'
p1556
F0.6666666666666666
sS'nixon'
p1557
F1.0
sS'pulled'
p1558
F0.4
sS'125'
p1559
F0.25
sS'drunken'
p1560
F1.0
sS'tagged'
p1561
F1.0
sS'saporta'
p1562
F1.0
sS'noteworthy'
p1563
F0.5
sS'indeed'
p1564
F0.2
sS'magistrate'
p1565
F0.5
sS'sexually'
p1566
F0.25
sS'raised'
p1567
F0.125
sS'canary'
p1568
F1.0
sS'years'
p1569
F0.24615384615384617
sS'arm'
p1570
F0.5
sS'brain'
p1571
F0.3076923076923077
sS'fatalities'
p1572
F0.5
sS'dismissed'
p1573
F0.125
sS'motions'
p1574
F0.5
sS'pitch'
p1575
F1.0
sS'dumb'
p1576
F1.0
sS'equip'
p1577
F1.0
sS'peterson'
p1578
F0.25
sS'still'
p1579
F0.21666666666666667
sS'worship'
p1580
F1.0
sS'christmas'
p1581
F0.1111111111111111
sS'police'
p1582
F0.348993288590604
sS'monitor'
p1583
F0.3333333333333333
sS'how'
p1584
F0.06451612903225806
sS'torn'
p1585
F1.0
sS'organisation'
p1586
F0.16666666666666666
sS'jim'
p1587
F0.3333333333333333
sS'louisville'
p1588
F1.0
sS'nterprise'
p1589
F1.0
sS'forms'
p1590
F0.2
sS'platform'
p1591
F0.3333333333333333
sS'writers'
p1592
F0.6666666666666666
sS'hometown'
p1593
F0.3333333333333333
sS'scribner'
p1594
F1.0
sS'mail'
p1595
F0.14285714285714285
sS'936'
p1596
F1.0
sS'deviant'
p1597
F1.0
sS'happened'
p1598
F0.07142857142857142
sS'evacuated'
p1599
F0.25
sS'non'
p1600
F0.06666666666666667
sS'retails'
p1601
F1.0
sS'finance'
p1602
F0.5555555555555556
sS'civilian'
p1603
F0.5
sS'killer'
p1604
F0.25
sS'evacuation'
p1605
F0.5
sS'refineries'
p1606
F1.0
sS'delighted'
p1607
F0.3333333333333333
sS'1991'
p1608
F0.375
sS'qualified'
p1609
F0.3333333333333333
sS'course'
p1610
F0.23076923076923078
sS'subscribers'
p1611
F0.2857142857142857
sS'half'
p1612
F0.10810810810810811
sS'not'
p1613
F0.12857142857142856
sS'now'
p1614
F0.11688311688311688
sS'provision'
p1615
F0.2
sS'killed'
p1616
F0.33766233766233766
sS'cliff'
p1617
F1.0
sS'fla'
p1618
F0.16666666666666666
sS'term'
p1619
F0.15789473684210525
sS'name'
p1620
F0.30303030303030304
sS'neutrality'
p1621
F1.0
sS'opera'
p1622
F0.5
sS'james'
p1623
F0.4
sS'artist'
p1624
F0.5
sS'appropriate'
p1625
F0.5
sS'locked'
p1626
F0.3333333333333333
sS'tnt'
p1627
F0.5
sS'overtook'
p1628
F1.0
sS'cannibalistic'
p1629
F1.0
sS'breach'
p1630
F0.14285714285714285
sS'rock'
p1631
F0.4166666666666667
sS'hijack'
p1632
F0.5
sS'daschle'
p1633
F0.42857142857142855
sS'marketwatch'
p1634
F0.5
sS'semifinal'
p1635
F0.5
sS'el'
p1636
F0.2
sS'square'
p1637
F0.6666666666666666
sS'retrieve'
p1638
F0.5
sS'latin'
p1639
F0.16666666666666666
sS'divisional'
p1640
F1.0
sS'ed'
p1641
F0.25
sS'revised'
p1642
F0.14285714285714285
sS'agnew'
p1643
F1.0
sS'balanced'
p1644
F0.3333333333333333
sS'fires'
p1645
F0.2857142857142857
sS'fever'
p1646
F0.25
sS'1486'
p1647
F1.0
sS'year'
p1648
F0.24213836477987422
sS'eu'
p1649
F0.1875
sS'et'
p1650
F1.0
sS'girl'
p1651
F0.06666666666666667
sS'worried'
p1652
F0.3333333333333333
sS'instances'
p1653
F0.3333333333333333
sS'plans'
p1654
F0.07407407407407407
sS'arison'
p1655
F1.0
sS'living'
p1656
F0.25
sS'ultimately'
p1657
F0.3333333333333333
sS'bellsouth'
p1658
F0.5
sS'jackson'
p1659
F0.25
sS'792'
p1660
F1.0
sS'3rd'
p1661
F0.45454545454545453
sS'infuriated'
p1662
F0.6666666666666666
sS'profit'
p1663
F0.17391304347826086
sS'oklahoma'
p1664
F0.5
sS'embassy'
p1665
F0.25
sS'ligaments'
p1666
F1.0
sS'increase'
p1667
F0.08823529411764706
sS'seriously'
p1668
F0.25
sS'investigation'
p1669
F0.06818181818181818
sS'internet'
p1670
F0.125
sS'fargo'
p1671
F0.5
sS'squares'
p1672
F0.5
sS'sensor'
p1673
F0.5
sS'advice'
p1674
F0.14285714285714285
sS'shows'
p1675
F0.25
sS'assurances'
p1676
F1.0
sS'after'
p1677
F0.14869888475836432
sS'philharmonic'
p1678
F0.5
sS'hefty'
p1679
F0.25
sS'shanell'
p1680
F0.3333333333333333
sS'million'
p1681
F0.2831541218637993
sS'seventh'
p1682
F0.16666666666666666
sS'albuquerque'
p1683
F0.6666666666666666
sS'possibility'
p1684
F0.2857142857142857
sS'quite'
p1685
F0.3333333333333333
sS'statistics'
p1686
F0.2
sS'complicated'
p1687
F0.3333333333333333
sS'yuri'
p1688
F0.3333333333333333
sS'carl'
p1689
F0.25
sS'ohio'
p1690
F0.23076923076923078
sS'obligation'
p1691
F0.5
sS'unnamed'
p1692
F0.5
sS'inevitable'
p1693
F0.5
sS'card'
p1694
F0.07692307692307693
sS'care'
p1695
F0.08333333333333333
sS'fraudulent'
p1696
F1.0
sS'training'
p1697
F0.5555555555555556
sS'lpga'
p1698
F0.5
sS'ministry'
p1699
F0.15384615384615385
sS'monsignor'
p1700
F1.0
sS'modest'
p1701
F0.2
sS'british'
p1702
F0.1111111111111111
sS'honest'
p1703
F0.3333333333333333
sS'spending'
p1704
F0.11764705882352941
sS'amplifiers'
p1705
F1.0
sS'place'
p1706
F0.12903225806451613
sS'926'
p1707
F1.0
sS'widow'
p1708
F0.3333333333333333
sS'rumsfeld'
p1709
F0.2222222222222222
sS'think'
p1710
F0.17073170731707318
sS'first'
p1711
F0.24489795918367346
sS'exotic'
p1712
F0.5
sS'cheese'
p1713
F1.0
sS'suspend'
p1714
F1.0
sS'merrill'
p1715
F0.08333333333333333
sS'revenue'
p1716
F0.3783783783783784
sS'spoken'
p1717
F0.25
sS'question'
p1718
F0.06666666666666667
sS'faculty'
p1719
F1.0
sS'potter'
p1720
F0.8571428571428571
sS'cpus'
p1721
F1.0
sS'indecent'
p1722
F1.0
sS'one'
p1723
F0.1024390243902439
sS'resignation'
p1724
F0.1
sS'ballmer'
p1725
F1.0
sS'americans'
p1726
F0.1
sS'long'
p1727
F0.038461538461538464
sS'suspended'
p1728
F0.5
sS'suing'
p1729
F0.5
sS'vote'
p1730
F0.3333333333333333
sS'xp'
p1731
F0.4
sS'fight'
p1732
F0.17647058823529413
sS'open'
p1733
F0.16279069767441862
sS'george'
p1734
F0.16666666666666666
sS'city'
p1735
F0.20588235294117646
sS'given'
p1736
F0.18181818181818182
sS'brooklyn'
p1737
F1.0
sS'district'
p1738
F0.1282051282051282
sS'stuck'
p1739
F1.0
sS'caught'
p1740
F0.25
sS'reinvestment'
p1741
F1.0
sS'extortion'
p1742
F1.0
sS'anyone'
p1743
F0.6666666666666666
sS'download'
p1744
F0.2222222222222222
sS'returns'
p1745
F0.25
sS'2'
p1746
F0.1583710407239819
sS'tragic'
p1747
F0.25
sS'convene'
p1748
F1.0
sS'legally'
p1749
F0.25
sS'white'
p1750
F0.16666666666666666
sS'qarase'
p1751
F0.5
sS'structures'
p1752
F1.0
sS'friend'
p1753
F0.2727272727272727
sS'gives'
p1754
F0.5
sS'holden'
p1755
F0.5
sS'briton'
p1756
F1.0
sS'allegedly'
p1757
F0.14285714285714285
sS'that'
p1758
F0.11159263271939328
sS'season'
p1759
F0.4090909090909091
sS'numbers'
p1760
F0.05263157894736842
sS'continuous'
p1761
F1.0
sS'braun'
p1762
F0.5
sS'blacklist'
p1763
F1.0
sS'released'
p1764
F0.1956521739130435
sS'practiceworks'
p1765
F1.0
sS'hartford'
p1766
F0.25
sS'kuwaitis'
p1767
F1.0
sS'slashed'
p1768
F0.5
sS'tehran'
p1769
F0.2
sS'quad'
p1770
F0.5
sS'8477'
p1771
F1.0
sS'freeze'
p1772
F1.0
sS'representing'
p1773
F0.125
sS'than'
p1774
F0.19337016574585636
sS'greenberg'
p1775
F1.0
sS'population'
p1776
F0.4
sS'11'
p1777
F0.11494252873563218
sS'10'
p1778
F0.22935779816513763
sS'television'
p1779
F0.10526315789473684
sS'12'
p1780
F0.13043478260869565
sS'15'
p1781
F0.17647058823529413
sS'14'
p1782
F0.0851063829787234
sS'17'
p1783
F0.19672131147540983
sS'16'
p1784
F0.16279069767441862
sS'19'
p1785
F0.08888888888888889
sS'18'
p1786
F0.19718309859154928
sS'require'
p1787
F0.125
sS'sharipovich'
p1788
F1.0
sS'diplomatic'
p1789
F0.16666666666666666
sS'transferred'
p1790
F0.2222222222222222
sS'metabolism'
p1791
F1.0
sS'spokeswoman'
p1792
F0.038461538461538464
sS'russin'
p1793
F1.0
sS'r'
p1794
F0.38461538461538464
sS'venture'
p1795
F0.6666666666666666
sS'were'
p1796
F0.1547085201793722
sS'college'
p1797
F0.18181818181818182
sS'caprice'
p1798
F1.0
sS'outcome'
p1799
F0.6
sS'russia'
p1800
F0.08333333333333333
sS'subcommittee'
p1801
F0.3333333333333333
sS'and'
p1802
F0.20581754076685765
sS'zivkovic'
p1803
F1.0
sS'glorifies'
p1804
F1.0
sS'sa'
p1805
F0.3333333333333333
sS'raines'
p1806
F1.0
sS'san'
p1807
F0.13513513513513514
sS'investors'
p1808
F0.0625
sS'remained'
p1809
F0.29411764705882354
sS'ann'
p1810
F0.2
sS'parking'
p1811
F0.25
sS'turned'
p1812
F0.2222222222222222
sS'marijuana'
p1813
F0.2
sS'crossover'
p1814
F0.5
sS'episcopal'
p1815
F0.125
sS'say'
p1816
F0.07462686567164178
sS'dumberer'
p1817
F1.0
sS'rent'
p1818
F1.0
sS'asbestos'
p1819
F1.0
sS'turner'
p1820
F0.5
sS'liscouski'
p1821
F0.5
sS'saw'
p1822
F0.2727272727272727
sS'any'
p1823
F0.08196721311475409
sS'batting'
p1824
F0.5
sS'sat'
p1825
F0.2
sS'speakers'
p1826
F1.0
sS'danbury'
p1827
F1.0
sS'cigarettes'
p1828
F1.0
sS'employers'
p1829
F0.3333333333333333
sS'consortium'
p1830
F0.5
sS'peacekeeping'
p1831
F0.3333333333333333
sS'note'
p1832
F0.4117647058823529
sS'equipment'
p1833
F0.2727272727272727
sS'potential'
p1834
F0.29411764705882354
sS'take'
p1835
F0.04918032786885246
sS'online'
p1836
F0.23076923076923078
sS'objective'
p1837
F1.0
sS'atop'
p1838
F0.25
sS'benin'
p1839
F1.0
sS'surf'
p1840
F0.5
sS'200'
p1841
F0.2222222222222222
sS'begin'
p1842
F0.18181818181818182
sS'polyphonic'
p1843
F1.0
sS'multiple'
p1844
F0.25
sS'dejean'
p1845
F1.0
sS'arguing'
p1846
F1.0
sS'friedman'
p1847
F1.0
sS'indicted'
p1848
F0.3333333333333333
sS'paid'
p1849
F0.1
sS'cide'
p1850
F0.6666666666666666
sS'fitzgerald'
p1851
F1.0
sS'assault'
p1852
F0.3333333333333333
sS'fcc'
p1853
F0.45454545454545453
sS'wittig'
p1854
F0.5
sS'stormed'
p1855
F0.5
sS'remarks'
p1856
F0.25
sS'knee'
p1857
F1.0
sS'tracy'
p1858
F0.3333333333333333
sS'bombardier'
p1859
F0.2
sS'pages'
p1860
F0.16666666666666666
sS'heinous'
p1861
F1.0
sS'operate'
p1862
F0.3333333333333333
sS'bishops'
p1863
F0.16666666666666666
sS'room'
p1864
F0.07692307692307693
sS'considered'
p1865
F0.22727272727272727
sS'jakarta'
p1866
F0.25
sS'average'
p1867
F0.463768115942029
sS'shooter'
p1868
F0.5
sS'steady'
p1869
F0.42857142857142855
sS'sale'
p1870
F0.21428571428571427
sS'wing'
p1871
F0.14285714285714285
sS'managing'
p1872
F0.3333333333333333
sS'choate'
p1873
F1.0
sS'yosvani'
p1874
F1.0
sS'intrusions'
p1875
F0.5
sS'trafficking'
p1876
F0.5
sS'slaves'
p1877
F1.0
sS'atlantic'
p1878
F0.16666666666666666
sS'senior'
p1879
F0.2692307692307692
sS'abraham'
p1880
F0.16666666666666666
sS'filing'
p1881
F0.14285714285714285
sS'forecasters'
p1882
F0.4
sS'repeatedly'
p1883
F0.5
sS'yard'
p1884
F0.2
sS'rating'
p1885
F0.2
sS'shot'
p1886
F0.17857142857142858
sS'show'
p1887
F0.16
sS'german'
p1888
F0.25
sS'able'
p1889
F0.1
sS'allegations'
p1890
F0.18181818181818182
sS'merit'
p1891
F0.3333333333333333
sS'leland'
p1892
F0.5
sS'hopes'
p1893
F0.14285714285714285
sS'dateline'
p1894
F0.3333333333333333
sS'fletcher'
p1895
F0.3333333333333333
sS'derbyshire'
p1896
F1.0
sS'aggressive'
p1897
F1.0
sS'forecast'
p1898
F0.0625
sS'maine'
p1899
F0.5714285714285714
sS'fifth'
p1900
F0.3333333333333333
sS'ground'
p1901
F0.15384615384615385
sS'dica'
p1902
F1.0
sS'upgrade'
p1903
F0.3333333333333333
sS'gulf'
p1904
F0.6666666666666666
sS'title'
p1905
F0.5
sS'daily'
p1906
F0.1111111111111111
sS'deck'
p1907
F0.5
sS'investigators'
p1908
F0.041666666666666664
sS'3'
p1909
F0.18471337579617833
sS'start'
p1910
F0.125
sS'flateau'
p1911
F1.0
sS'swamped'
p1912
F0.5
sS'only'
p1913
F0.0990990990990991
sS'wood'
p1914
F0.5
sS'black'
p1915
F0.42857142857142855
sS'deployed'
p1916
F0.2
sS'developed'
p1917
F0.4117647058823529
sS'sierra'
p1918
F0.5
sS'stain'
p1919
F0.5
sS'robb'
p1920
F1.0
sS'congressional'
p1921
F0.2
sS'aventis'
p1922
F0.5
sS'fda'
p1923
F0.3333333333333333
sS'sparring'
p1924
F1.0
sS'legitimate'
p1925
F0.2
sS'get'
p1926
F0.11363636363636363
sS'assistant'
p1927
F0.35714285714285715
sS'samuel'
p1928
F1.0
sS'cia'
p1929
F0.125
sS'mission'
p1930
F0.1
sS'recruiters'
p1931
F1.0
sS'baghdad'
p1932
F0.3181818181818182
sS'killers'
p1933
F0.5
sS'nearly'
p1934
F0.058823529411764705
sS'invited'
p1935
F0.25
sS'awaiting'
p1936
F0.5
sS'trade'
p1937
F0.21052631578947367
sS'secondary'
p1938
F1.0
sS'prime'
p1939
F0.14285714285714285
sS'bone'
p1940
F0.2
sS'resource'
p1941
F0.3333333333333333
sS'held'
p1942
F0.16216216216216217
sS'covering'
p1943
F1.0
sS'floods'
p1944
F1.0
sS'median'
p1945
F0.5
sS'yield'
p1946
F0.6857142857142857
sS'morning'
p1947
F0.16
sS'jokes'
p1948
F1.0
sS'miles'
p1949
F0.34782608695652173
sS'roger'
p1950
F0.5
sS'source'
p1951
F0.07692307692307693
sS'draft'
p1952
F0.16666666666666666
sS'worries'
p1953
F0.5
sS'scott'
p1954
F0.2
sS'where'
p1955
F0.14492753623188406
sS'audited'
p1956
F1.0
sS'husband'
p1957
F0.16666666666666666
sS'tiburtina'
p1958
F1.0
sS'declared'
p1959
F0.05263157894736842
sS'osbourne'
p1960
F0.5
sS'espn'
p1961
F0.5
sS'physically'
p1962
F0.3333333333333333
sS'bids'
p1963
F0.2
sS'infogrames'
p1964
F1.0
sS'isabel'
p1965
F1.0
sS'elected'
p1966
F0.7142857142857143
sS'asleep'
p1967
F0.5
sS'sean'
p1968
F0.3333333333333333
sS'seal'
p1969
F0.5
sS'threapleton'
p1970
F1.0
sS'surgery'
p1971
F0.05263157894736842
sS'sport'
p1972
F0.2
sS'budding'
p1973
F1.0
sS'wonder'
p1974
F0.5
sS'cadets'
p1975
F0.25
sS'falise'
p1976
F1.0
sS'israeli'
p1977
F0.2222222222222222
sS'837'
p1978
F1.0
sS'registering'
p1979
F1.0
sS'farmers'
p1980
F0.16666666666666666
sS'federal'
p1981
F0.14018691588785046
sS'jeter'
p1982
F0.5
sS'review'
p1983
F0.08333333333333333
sS'representatives'
p1984
F0.16666666666666666
sS'mayor'
p1985
F0.35
sS'weapons'
p1986
F0.16279069767441862
sS'outside'
p1987
F0.21739130434782608
sS'bureau'
p1988
F0.2857142857142857
sS'tea'
p1989
F0.5
sS'morales'
p1990
F1.0
sS'between'
p1991
F0.08
sS'import'
p1992
F0.3333333333333333
sS'justified'
p1993
F0.5
sS'reading'
p1994
F0.1111111111111111
sS'across'
p1995
F0.07692307692307693
sS'schuster'
p1996
F0.5
sS'notice'
p1997
F0.1111111111111111
sS'infrastructure'
p1998
F0.16666666666666666
sS'jobs'
p1999
F0.1875
sS'august'
p2000
F0.29411764705882354
sS'rumours'
p2001
F1.0
sS'quaife'
p2002
F1.0
sS'screen'
p2003
F0.36363636363636365
sS'688'
p2004
F1.0
sS'jp'
p2005
F0.6666666666666666
sS'26'
p2006
F0.1
sS'jr'
p2007
F0.1
sS'killing'
p2008
F0.13636363636363635
sS'regional'
p2009
F0.16666666666666666
sS'arteries'
p2010
F0.5
sS'survivors'
p2011
F0.5
sS'jets'
p2012
F0.3333333333333333
sS'article'
p2013
F0.6666666666666666
sS'scripps'
p2014
F1.0
sS'come'
p2015
F0.07407407407407407
sS'pixels'
p2016
F1.0
sS'ceremonies'
p2017
F0.3333333333333333
sS'oust'
p2018
F1.0
sS'dates'
p2019
F0.6666666666666666
sS'taxpayer'
p2020
F0.5
sS'weaving'
p2021
F0.5
sS'469'
p2022
F0.25
sS'many'
p2023
F0.14084507042253522
sS'region'
p2024
F0.23529411764705882
sS'priests'
p2025
F0.16666666666666666
sS'according'
p2026
F0.14102564102564102
sS'nile'
p2027
F0.5555555555555556
sS'paring'
p2028
F1.0
sS's'
p2029
F0.17385352498288842
sS'quiej'
p2030
F1.0
sS'patrons'
p2031
F1.0
sS'uc'
p2032
F0.2
sS'gerald'
p2033
F0.6666666666666666
sS'senator'
p2034
F0.1
sS'holders'
p2035
F0.16666666666666666
sS'traded'
p2036
F0.6
sS'vajpayee'
p2037
F1.0
sS'mann'
p2038
F1.0
sS'duty'
p2039
F0.2857142857142857
sS'among'
p2040
F0.1590909090909091
sS'spoil'
p2041
F1.0
sS'cancer'
p2042
F0.22641509433962265
sS'ixic'
p2043
F0.1282051282051282
sS'firewall'
p2044
F1.0
sS'effective'
p2045
F0.3333333333333333
sS'capitol'
p2046
F0.4
sS'period'
p2047
F0.2413793103448276
sS'mccain'
p2048
F1.0
sS'60'
p2049
F0.1724137931034483
sS'61'
p2050
F0.17647058823529413
sS'pole'
p2051
F1.0
sS'63'
p2052
F0.15384615384615385
sS'anti'
p2053
F0.14285714285714285
sS'65'
p2054
F0.1111111111111111
sS'66'
p2055
F0.15384615384615385
sS'approval'
p2056
F0.06666666666666667
sS'68'
p2057
F0.0625
sS'yucaipa'
p2058
F1.0
sS'writing'
p2059
F0.2
sS'custody'
p2060
F0.3
sS'adults'
p2061
F0.25
sS'considering'
p2062
F0.3333333333333333
sS'better'
p2063
F0.10526315789473684
sS'teammate'
p2064
F0.5
sS'olivet'
p2065
F1.0
sS'lyman'
p2066
F1.0
sS'marc'
p2067
F0.6666666666666666
sS'stretch'
p2068
F0.5
sS'west'
p2069
F0.3191489361702128
sS'certify'
p2070
F0.3333333333333333
sS'palmsource'
p2071
F0.25
sS'tropical'
p2072
F0.3333333333333333
sS'kawasme'
p2073
F1.0
sS'waksal'
p2074
F0.3333333333333333
sS'punished'
p2075
F1.0
sS'combined'
p2076
F0.2
sS'motives'
p2077
F1.0
sS'mars'
p2078
F0.42857142857142855
sS'technical'
p2079
F0.25
sS'reflective'
p2080
F1.0
sS'bafin'
p2081
F0.5
sS'billups'
p2082
F1.0
sS'mary'
p2083
F0.16666666666666666
sS'500'
p2084
F0.20512820512820512
sS'edmund'
p2085
F0.5
sS'engine'
p2086
F0.75
sS'bmc'
p2087
F1.0
sS'shy'
p2088
F0.25
sS'transportation'
p2089
F0.25
sS'orange'
p2090
F0.25
sS'unanimously'
p2091
F0.5
sS'andres'
p2092
F1.0
sS'offered'
p2093
F0.1111111111111111
sS'bmi'
p2094
F0.5
sS'zambrano'
p2095
F0.5
sS'andrew'
p2096
F0.375
sS'antivirus'
p2097
F0.2
sS'quarantined'
p2098
F0.25
sS'photos'
p2099
F0.3333333333333333
sS'wake'
p2100
F0.25
sS'minister'
p2101
F0.1724137931034483
sS'penn'
p2102
F0.75
sS'parrish'
p2103
F0.5
sS'suspected'
p2104
F0.125
sS'thing'
p2105
F0.08333333333333333
sS'tamil'
p2106
F0.5
sS'former'
p2107
F0.19402985074626866
sS'robber'
p2108
F1.0
sS'granted'
p2109
F0.3333333333333333
sS'paying'
p2110
F0.25
sS'kazan'
p2111
F1.0
sS'developing'
p2112
F0.25
sS'these'
p2113
F0.06818181818181818
sS'consultant'
p2114
F1.0
sS'mount'
p2115
F0.14285714285714285
sS'sobbed'
p2116
F1.0
sS'cash'
p2117
F0.2
sS'arnold'
p2118
F0.5
sS'hayes'
p2119
F0.5
sS'w'
p2120
F0.08333333333333333
sS'associates'
p2121
F0.2727272727272727
sS'programme'
p2122
F0.5
sS'centimetre'
p2123
F1.0
sS'editorial'
p2124
F0.3333333333333333
sS'blackberry'
p2125
F1.0
sS'investigating'
p2126
F0.058823529411764705
sS'abducted'
p2127
F1.0
sS'margin'
p2128
F0.14285714285714285
sS'spotlight'
p2129
F0.25
sS'trades'
p2130
F0.5
sS'suse'
p2131
F0.25
sS'then'
p2132
F0.17391304347826086
sS'sincere'
p2133
F0.5
sS'j'
p2134
F0.04
sS'purse'
p2135
F1.0
sS'ftse'
p2136
F0.6
sS'marcel'
p2137
F1.0
sS'commander'
p2138
F0.6666666666666666
sS'middle'
p2139
F0.2
sS'sudanese'
p2140
F1.0
sS'mcknight'
p2141
F1.0
sS'contract'
p2142
F0.1875
sS'kerkorian'
p2143
F0.5
sS'kenya'
p2144
F0.3333333333333333
sS'nation'
p2145
F0.11428571428571428
sS'technology'
p2146
F0.15384615384615385
sS'ship'
p2147
F0.1
sS'diseases'
p2148
F0.4
sS'expenditures'
p2149
F0.5
sS'revolutions'
p2150
F0.2
sS'riaa'
p2151
F1.0
sS'bahrain'
p2152
F1.0
sS'pay'
p2153
F0.2222222222222222
sS'paz'
p2154
F1.0
sS'bowl'
p2155
F1.0
sS'tour'
p2156
F0.2
sS'same'
p2157
F0.24390243902439024
sS'pretrial'
p2158
F1.0
sS'aronov'
p2159
F0.5
sS'inquiry'
p2160
F0.2222222222222222
sS'angered'
p2161
F1.0
sS'fireproofing'
p2162
F0.5
sS'agitated'
p2163
F1.0
sS'damon'
p2164
F1.0
sS'document'
p2165
F0.1
sS'pockmarks'
p2166
F1.0
sS'week'
p2167
F0.17647058823529413
sS'jeffrey'
p2168
F0.5
sS'oil'
p2169
F0.09523809523809523
sS'vivendi'
p2170
F0.25
sS'closest'
p2171
F0.3333333333333333
sS'singapore'
p2172
F0.2857142857142857
sS'boosted'
p2173
F1.0
sS'foam'
p2174
F0.3333333333333333
sS'driver'
p2175
F0.5
sS'companion'
p2176
F0.75
sS'driven'
p2177
F0.14285714285714285
sS'persons'
p2178
F0.3333333333333333
sS'running'
p2179
F0.15384615384615385
sS'stennis'
p2180
F0.5
sS'climbing'
p2181
F1.0
sS'vowed'
p2182
F0.5
sS'atkins'
p2183
F0.3333333333333333
sS'smartdefense'
p2184
F1.0
sS'gyorgy'
p2185
F1.0
sS'charges'
p2186
F0.16129032258064516
sS'falsification'
p2187
F1.0
sS'veritas'
p2188
F0.25
sS'roughly'
p2189
F0.1111111111111111
sS'liberians'
p2190
F1.0
sS'prequel'
p2191
F1.0
sS'severe'
p2192
F0.21428571428571427
sS'without'
p2193
F0.14285714285714285
sS'sirius'
p2194
F0.6666666666666666
sS'relief'
p2195
F0.2
sS'components'
p2196
F0.4
sS'priced'
p2197
F0.25
sS'termination'
p2198
F0.3333333333333333
sS'schiavo'
p2199
F0.25
sS'checkpoints'
p2200
F1.0
sS'bodies'
p2201
F0.23076923076923078
sS'charged'
p2202
F0.12
sS'transplant'
p2203
F1.0
sS'exceeding'
p2204
F0.6666666666666666
sS'malicious'
p2205
F0.5
sS'hoffine'
p2206
F0.5
sS'rosenbaum'
p2207
F0.5
sS'210'
p2208
F1.0
sS'pakistan'
p2209
F0.2222222222222222
sS'being'
p2210
F0.0641025641025641
sS'money'
p2211
F0.13513513513513514
sS'compound'
p2212
F0.16666666666666666
sS'toby'
p2213
F0.3333333333333333
sS'actress'
p2214
F0.25
sS'safeguards'
p2215
F1.0
sS'foot'
p2216
F0.2222222222222222
sS'dehydration'
p2217
F1.0
sS'kill'
p2218
F0.25
sS'actor'
p2219
F0.3333333333333333
sS'touch'
p2220
F0.25
sS'extradition'
p2221
F0.5
sS'speed'
p2222
F0.09090909090909091
sS'captured'
p2223
F0.16666666666666666
sS'weekly'
p2224
F0.2
sS'blow'
p2225
F1.0
sS'death'
p2226
F0.10909090909090909
sS'represented'
p2227
F0.14285714285714285
sS'mcdonald'
p2228
F0.25
sS'rose'
p2229
F0.23655913978494625
sS'except'
p2230
F0.2
sS'civil'
p2231
F0.4
sS'eisenhower'
p2232
F0.5
sS'beagle'
p2233
F1.0
sS'color'
p2234
F1.0
sS'pickering'
p2235
F1.0
sS'viewers'
p2236
F1.0
sS'struck'
p2237
F0.38461538461538464
sS'skies'
p2238
F0.5
sS'blondel'
p2239
F1.0
sS'lade'
p2240
F1.0
sS'aspects'
p2241
F0.25
sS'schwarzenegger'
p2242
F0.2727272727272727
sS'rules'
p2243
F0.1875
sS'handling'
p2244
F0.25
sS'virginia'
p2245
F0.18518518518518517
sS'early'
p2246
F0.08333333333333333
sS'warehouse'
p2247
F0.25
sS'inflation'
p2248
F0.16666666666666666
sS'traffic'
p2249
F0.26666666666666666
sS'preference'
p2250
F0.3333333333333333
sS'mcdonnell'
p2251
F1.0
sS'using'
p2252
F0.16666666666666666
sS'railroad'
p2253
F0.3333333333333333
sS'glitches'
p2254
F1.0
sS'recipient'
p2255
F1.0
sS'ruled'
p2256
F0.23809523809523808
sS'weatherall'
p2257
F1.0
sS'acute'
p2258
F0.3333333333333333
sS'christina'
p2259
F0.3333333333333333
sS'developers'
p2260
F0.2
sS'intel'
p2261
F0.21875
sS'kennedy'
p2262
F0.3333333333333333
sS'patrick'
p2263
F0.5
sS'nissan'
p2264
F0.3333333333333333
sS'slain'
p2265
F1.0
sS'server'
p2266
F0.3333333333333333
sS'annually'
p2267
F0.14285714285714285
sS'notified'
p2268
F1.0
sS'benefit'
p2269
F0.125
sS'donations'
p2270
F0.5
sS'either'
p2271
F0.25
sS'retailers'
p2272
F0.125
sS'occasions'
p2273
F0.5
sS'resneck'
p2274
F1.0
sS'output'
p2275
F0.14285714285714285
sS'voluntarily'
p2276
F0.2
sS'reduced'
p2277
F0.25
sS'bader'
p2278
F0.3333333333333333
sS'sharp'
p2279
F0.2857142857142857
sS'gusts'
p2280
F0.5
sS'amid'
p2281
F0.07142857142857142
sS'cisco'
p2282
F0.2
sS'guarino'
p2283
F0.3333333333333333
sS'nikkei'
p2284
F0.6666666666666666
sS'67'
p2285
F0.07692307692307693
sS'competition'
p2286
F0.21428571428571427
sS'driving'
p2287
F0.5
sS'britt'
p2288
F1.0
sS'erase'
p2289
F0.6666666666666666
sS'starfish'
p2290
F1.0
sS'normalisation'
p2291
F1.0
sS'guillermo'
p2292
F1.0
sS'organizing'
p2293
F0.3333333333333333
sS'2800'
p2294
F1.0
sS'buried'
p2295
F0.3333333333333333
sS'provided'
p2296
F0.14285714285714285
sS'prosecutor'
p2297
F0.14285714285714285
sS'poll'
p2298
F0.1111111111111111
sS'accidental'
p2299
F1.0
sS'prolific'
p2300
F1.0
sS'378'
p2301
F1.0
sS'nazi'
p2302
F1.0
sS'sulzberger'
p2303
F1.0
sS'filling'
p2304
F0.25
sS'legal'
p2305
F0.08571428571428572
sS'ellie'
p2306
F1.0
sS'critical'
p2307
F0.3125
sS'deficit'
p2308
F0.25
sS'stopped'
p2309
F0.16666666666666666
sS'francois'
p2310
F0.5
sS'911'
p2311
F0.3333333333333333
sS'baldwin'
p2312
F1.0
sS'freed'
p2313
F0.6666666666666666
sS'optima'
p2314
F1.0
sS'gehman'
p2315
F0.3333333333333333
sS'felt'
p2316
F0.18181818181818182
sS'assembly'
p2317
F0.6666666666666666
sS'scientific'
p2318
F0.5
sS'power'
p2319
F0.09090909090909091
sS'airways'
p2320
F0.1111111111111111
sS'seconds'
p2321
F0.4
sS'sixth'
p2322
F0.4444444444444444
sS'equivalent'
p2323
F0.5
sS'152'
p2324
F0.5
sS'tuition'
p2325
F0.2
sS'windfalls'
p2326
F1.0
sS'despicable'
p2327
F0.5
sS'leadership'
p2328
F0.1111111111111111
sS'georgia'
p2329
F0.1
sS'246'
p2330
F1.0
sS'parishioners'
p2331
F1.0
sS'sixty'
p2332
F0.3333333333333333
sS'thailand'
p2333
F0.16666666666666666
sS'saugus'
p2334
F1.0
sS'strangled'
p2335
F0.75
sS'tuning'
p2336
F1.0
sS'on'
p2337
F0.18277511961722487
sS'thomas'
p2338
F0.09090909090909091
sS'central'
p2339
F0.16666666666666666
sS'840'
p2340
F1.0
sS'jeep'
p2341
F1.0
sS'of'
p2342
F0.23777528928704741
sS'industry'
p2343
F0.09375
sS'howard'
p2344
F0.2727272727272727
sS'discussed'
p2345
F0.25
sS'thousands'
p2346
F0.09523809523809523
sS'restoration'
p2347
F1.0
sS'medicare'
p2348
F0.15384615384615385
sS'airline'
p2349
F0.18181818181818182
sS'neighbor'
p2350
F0.5
sS'act'
p2351
F0.16666666666666666
sS'intent'
p2352
F1.0
sS'bond'
p2353
F0.45454545454545453
sS'backup'
p2354
F1.0
sS'or'
p2355
F0.38141809290953543
sS'road'
p2356
F0.25
sS'heavy'
p2357
F0.125
sS'disinfectant'
p2358
F1.0
sS'diagnosed'
p2359
F0.125
sS'protests'
p2360
F0.6666666666666666
sS'inclusion'
p2361
F1.0
sS'whites'
p2362
F0.5
sS'communication'
p2363
F0.4
sS'gard'
p2364
F1.0
sS'garb'
p2365
F1.0
sS'spinnaker'
p2366
F1.0
sS'garner'
p2367
F0.8
sS'variable'
p2368
F1.0
sS'craddick'
p2369
F1.0
sS'rising'
p2370
F0.0625
sS'determine'
p2371
F0.07142857142857142
sS'parties'
p2372
F0.25
sS'watchdog'
p2373
F0.3333333333333333
sS'faced'
p2374
F0.25
sS'your'
p2375
F0.3333333333333333
sS'contest'
p2376
F0.1111111111111111
sS'corsica'
p2377
F1.0
sS'mandalay'
p2378
F1.0
sS'her'
p2379
F0.2619047619047619
sS'area'
p2380
F0.08823529411764706
sS'ortiz'
p2381
F0.5
sS'there'
p2382
F0.19402985074626866
sS'vh1'
p2383
F1.0
sS'alleged'
p2384
F0.07142857142857142
sS'strip'
p2385
F0.25
sS'los'
p2386
F0.4117647058823529
sS'handcuffed'
p2387
F1.0
sS'pasadena'
p2388
F1.0
sS'racist'
p2389
F0.5
sS'low'
p2390
F0.19230769230769232
sS'lot'
p2391
F0.23076923076923078
sS'brazilian'
p2392
F1.0
sS'softening'
p2393
F0.5
sS'fish'
p2394
F0.16666666666666666
sS'assumes'
p2395
F0.6666666666666666
sS'treat'
p2396
F0.16666666666666666
sS'truck'
p2397
F0.25
sS'jones'
p2398
F0.5740740740740741
sS'ewing'
p2399
F1.0
sS'speranza'
p2400
F1.0
sS'enough'
p2401
F0.2857142857142857
sS'haley'
p2402
F1.0
sS'institutions'
p2403
F0.6666666666666666
sS'strikes'
p2404
F0.25
sS'cabinet'
p2405
F0.25
sS'manipulative'
p2406
F1.0
sS'ullrich'
p2407
F1.0
sS'merger'
p2408
F0.25
sS'trying'
p2409
F0.09090909090909091
sS'with'
p2410
F0.15822784810126583
sS'buying'
p2411
F0.2
sS'borrowed'
p2412
F1.0
sS'october'
p2413
F0.05263157894736842
sS'improved'
p2414
F0.3333333333333333
sS'stanford'
p2415
F0.2857142857142857
sS'995'
p2416
F0.16666666666666666
sS'wholesale'
p2417
F0.3333333333333333
sS'sani'
p2418
F1.0
sS'arlington'
p2419
F1.0
sS'preside'
p2420
F1.0
sS'blankets'
p2421
F0.5
sS'abuses'
p2422
F0.3333333333333333
sS'doud'
p2423
F1.0
sS'grass'
p2424
F0.3333333333333333
sS'agree'
p2425
F1.0
sS'expect'
p2426
F0.15384615384615385
sS'wants'
p2427
F0.1
sS'hurriyet'
p2428
F1.0
sS'leaked'
p2429
F1.0
sS'600'
p2430
F0.07142857142857142
sS'razor'
p2431
F0.4
sS'dresdner'
p2432
F1.0
sS'holes'
p2433
F0.6666666666666666
sS'arabs'
p2434
F1.0
sS'stealing'
p2435
F0.3333333333333333
sS'am'
p2436
F0.07692307692307693
sS'sales'
p2437
F0.23469387755102042
sS'deep'
p2438
F0.25
sS'general'
p2439
F0.19230769230769232
sS'cbs'
p2440
F0.42857142857142855
sS'britain'
p2441
F0.125
sS'at'
p2442
F0.2305593451568895
sS'file'
p2443
F0.3076923076923077
sS'advertisers'
p2444
F0.3333333333333333
sS'politics'
p2445
F0.25
sS'withdrawal'
p2446
F0.5
sS'syrian'
p2447
F0.2
sS'bishop'
p2448
F0.3333333333333333
sS'film'
p2449
F0.16666666666666666
sS'watertown'
p2450
F1.0
sS'beyond'
p2451
F0.5
sS'receive'
p2452
F0.1111111111111111
sS'seminar'
p2453
F0.5
sS'pledge'
p2454
F0.25
sS'shortages'
p2455
F0.3333333333333333
sS'diarrhea'
p2456
F1.0
sS'insurance'
p2457
F0.16666666666666666
sS'bremer'
p2458
F0.2727272727272727
sS'valid'
p2459
F1.0
sS'astronaut'
p2460
F0.6666666666666666
sS'hoffa'
p2461
F0.3333333333333333
sS'3000'
p2462
F1.0
sS'humvee'
p2463
F1.0
sS'you'
p2464
F0.15555555555555556
sS'thousand'
p2465
F0.5
sS'houseboat'
p2466
F1.0
sS'poor'
p2467
F0.27419354838709675
sS'requested'
p2468
F0.14285714285714285
sS'briefly'
p2469
F0.3333333333333333
sS'championship'
p2470
F0.5
sS'nasd'
p2471
F0.6
sS'congress'
p2472
F0.26666666666666666
sS'terri'
p2473
F0.3333333333333333
sS'students'
p2474
F0.19047619047619047
sS'ridder'
p2475
F1.0
sS'acosta'
p2476
F1.0
sS'messagelabs'
p2477
F1.0
sS'chorale'
p2478
F1.0
sS'oracle'
p2479
F0.19047619047619047
sS'important'
p2480
F0.13333333333333333
sS'track'
p2481
F0.2
sS'registry'
p2482
F0.16666666666666666
sS'coverage'
p2483
F0.375
sS'brands'
p2484
F0.2
sS'485'
p2485
F1.0
sS'stocks'
p2486
F0.05
sS'tendencies'
p2487
F1.0
sS'pool'
p2488
F0.5
sS'network'
p2489
F0.1875
sS'building'
p2490
F0.17391304347826086
sS'overture'
p2491
F0.5
sS'remote'
p2492
F0.5
sS'assets'
p2493
F0.08333333333333333
sS'calls'
p2494
F0.3157894736842105
sS'wife'
p2495
F0.13793103448275862
sS'omnibus'
p2496
F1.0
sS'sophos'
p2497
F0.5
sS'keanu'
p2498
F1.0
sS'parsons'
p2499
F0.2
sS'directors'
p2500
F0.2
sS'passed'
p2501
F0.23529411764705882
sS'u'
p2502
F0.17903930131004367
sS'nelson'
p2503
F0.5
sS'adan'
p2504
F0.5
sS'treason'
p2505
F1.0
sS'lawsuits'
p2506
F0.16666666666666666
sS'overseas'
p2507
F0.5
sS'resolution'
p2508
F0.2857142857142857
sS'original'
p2509
F0.09090909090909091
sS'refused'
p2510
F0.10526315789473684
sS'monte'
p2511
F1.0
sS'influenza'
p2512
F1.0
sS'consider'
p2513
F0.14285714285714285
sS'chinese'
p2514
F0.6
sS'roman'
p2515
F0.16666666666666666
sS'allergy'
p2516
F0.6666666666666666
sS'dollar'
p2517
F0.3157894736842105
sS'katz'
p2518
F1.0
sS'rmbs'
p2519
F1.0
sS'month'
p2520
F0.2716049382716049
sS'founded'
p2521
F0.3333333333333333
sS'earners'
p2522
F0.5
sS'disc'
p2523
F0.5
sS'deadline'
p2524
F0.2
sS'baath'
p2525
F0.4
sS'talks'
p2526
F0.0625
sS'follow'
p2527
F0.5
sS'fixtures'
p2528
F1.0
sS'settlement'
p2529
F0.07692307692307693
sS'religious'
p2530
F0.3333333333333333
sS'children'
p2531
F0.15789473684210525
sS'causes'
p2532
F0.25
sS'shattered'
p2533
F0.3333333333333333
sS'apartment'
p2534
F0.3
sS'referring'
p2535
F0.16666666666666666
sS'pornographic'
p2536
F0.5
sS'polychronopoulos'
p2537
F1.0
sS'lining'
p2538
F0.3333333333333333
sS'pledged'
p2539
F0.5
sS'leaderboard'
p2540
F1.0
sS'cheney'
p2541
F0.5
sS'acting'
p2542
F0.1111111111111111
sS'thursday'
p2543
F0.15053763440860216
sS'to'
p2544
F0.2206605762473647
sS'program'
p2545
F0.0851063829787234
sS'alvarez'
p2546
F0.6666666666666666
sS'spain'
p2547
F0.16666666666666666
sS'alberto'
p2548
F1.0
sS'issued'
p2549
F0.08695652173913043
sS'safety'
p2550
F0.17647058823529413
sS'lawmakers'
p2551
F0.2857142857142857
sS'dynes'
p2552
F0.16666666666666666
sS'vliet'
p2553
F1.0
sS'harrigan'
p2554
F0.5
sS'case'
p2555
F0.15384615384615385
sS'woman'
p2556
F0.34615384615384615
sS'mulloy'
p2557
F0.5
sS'returned'
p2558
F0.07142857142857142
sS'deeper'
p2559
F1.0
sS'lebanese'
p2560
F1.0
sS'far'
p2561
F0.1724137931034483
sS'76th'
p2562
F1.0
sS'arequipa'
p2563
F1.0
sS'xoma'
p2564
F0.6
sS'mph'
p2565
F0.4
sS'coloured'
p2566
F1.0
sS'icann'
p2567
F1.0
sS'decide'
p2568
F0.1111111111111111
sS'callebaut'
p2569
F0.3333333333333333
sS'sony'
p2570
F0.2727272727272727
sS'ticket'
p2571
F0.6666666666666666
sS'faa'
p2572
F0.3333333333333333
sS'ticker'
p2573
F1.0
sS'advancers'
p2574
F0.3333333333333333
sS'condition'
p2575
F0.26666666666666666
sS'treating'
p2576
F0.6666666666666666
sS'cheung'
p2577
F1.0
sS'17th'
p2578
F1.0
sS'columbine'
p2579
F1.0
sS'cable'
p2580
F0.26666666666666666
sS'benevolent'
p2581
F1.0
sS'louis'
p2582
F0.25
sS'list'
p2583
F0.16
sS'manager'
p2584
F0.3333333333333333
sS'large'
p2585
F0.3181818181818182
sS'benning'
p2586
F0.5
sS'saudi'
p2587
F0.1
sS'liars'
p2588
F1.0
sS'harry'
p2589
F0.8888888888888888
sS'small'
p2590
F0.2
sS'biological'
p2591
F0.18181818181818182
sS'dodger'
p2592
F1.0
sS'tribal'
p2593
F0.3333333333333333
sS'trio'
p2594
F1.0
sS'blackout'
p2595
F0.16666666666666666
sS'owned'
p2596
F0.14285714285714285
sS'polls'
p2597
F0.6666666666666666
sS'rats'
p2598
F0.6666666666666666
sS'edt'
p2599
F0.2857142857142857
sS'fence'
p2600
F0.3333333333333333
sS'195'
p2601
F0.5
sS'appearance'
p2602
F0.3333333333333333
sS'doubt'
p2603
F0.3333333333333333
sS'streets'
p2604
F0.2
sS'ritter'
p2605
F1.0
sS'lack'
p2606
F0.5
sS'past'
p2607
F0.08108108108108109
sS'hoffenblum'
p2608
F1.0
sS'rate'
p2609
F0.22857142857142856
sS'greenspan'
p2610
F0.3333333333333333
sS'silverstein'
p2611
F1.0
sS'lawyer'
p2612
F0.1111111111111111
sS'pass'
p2613
F0.2857142857142857
sS'nbc'
p2614
F0.21428571428571427
sS'further'
p2615
F0.09090909090909091
sS'silvester'
p2616
F0.6666666666666666
sS'strunk'
p2617
F1.0
sS'clarence'
p2618
F0.2
sS'childs'
p2619
F1.0
sS'idc'
p2620
F0.5
sS'what'
p2621
F0.1320754716981132
sS'sub'
p2622
F0.25
sS'consumers'
p2623
F0.2777777777777778
sS'whirlwind'
p2624
F1.0
sS'sun'
p2625
F0.08333333333333333
sS'section'
p2626
F0.14285714285714285
sS'anniversary'
p2627
F0.2
sS'corked'
p2628
F0.5
sS'leiu'
p2629
F1.0
sS'witnesses'
p2630
F0.16666666666666666
sS'coroner'
p2631
F0.5
sS'suu'
p2632
F0.16666666666666666
sS'version'
p2633
F0.13333333333333333
sS'diaz'
p2634
F1.0
sS'abu'
p2635
F0.5
sS'scientists'
p2636
F0.23076923076923078
sS'nurse'
p2637
F0.4
sS'public'
p2638
F0.2631578947368421
sS'movement'
p2639
F0.3333333333333333
sS'multinational'
p2640
F0.5
sS'edited'
p2641
F1.0
sS'hebei'
p2642
F1.0
sS'full'
p2643
F0.08333333333333333
sS'iran'
p2644
F0.2222222222222222
sS'gainers'
p2645
F0.5
sS'vomiting'
p2646
F1.0
sS'hours'
p2647
F0.25806451612903225
sS'citicorp'
p2648
F1.0
sS'tracks'
p2649
F0.2
sS'archdiocese'
p2650
F0.14285714285714285
sS'operating'
p2651
F0.1875
sS'berkeley'
p2652
F0.6
sS'directions'
p2653
F1.0
sS'november'
p2654
F0.09090909090909091
sS'strong'
p2655
F0.4090909090909091
sS'backlash'
p2656
F0.5
sS'publisher'
p2657
F0.6666666666666666
sS'acevedo'
p2658
F1.0
sS'prosecutors'
p2659
F0.1111111111111111
sS'division'
p2660
F0.1111111111111111
sS'xolair'
p2661
F1.0
sS'crossing'
p2662
F0.1111111111111111
sS'losses'
p2663
F0.07142857142857142
sS'experience'
p2664
F0.14285714285714285
sS'prior'
p2665
F0.2
sS'airport'
p2666
F0.07142857142857142
sS'describing'
p2667
F0.5
sS'advertising'
p2668
F0.25
sS'pick'
p2669
F0.2857142857142857
sS'action'
p2670
F0.16
sS'dismiss'
p2671
F0.5
sS'narrow'
p2672
F0.3333333333333333
sS'options'
p2673
F0.1111111111111111
sS'klitschko'
p2674
F1.0
sS'followed'
p2675
F0.07142857142857142
sS'family'
p2676
F0.20930232558139536
sS'buses'
p2677
F1.0
sS'weill'
p2678
F0.6666666666666666
sS'organising'
p2679
F0.5
sS'africa'
p2680
F0.21052631578947367
sS'backed'
p2681
F0.1
sS'regiment'
p2682
F0.375
sS'aimed'
p2683
F0.125
sS'toys'
p2684
F0.25
sS'rollover'
p2685
F0.5
sS'armed'
p2686
F0.1111111111111111
sS'1900'
p2687
F1.0
sS'eddington'
p2688
F0.3333333333333333
sS'shareholders'
p2689
F0.07692307692307693
sS'eye'
p2690
F0.6666666666666666
sS'takes'
p2691
F0.4
sS'saxony'
p2692
F1.0
sS'0'
p2693
F0.4437869822485207
sS'intense'
p2694
F0.5
sS'operates'
p2695
F1.0
sS'contains'
p2696
F0.16666666666666666
sS'petroleum'
p2697
F0.3333333333333333
sS'two'
p2698
F0.13793103448275862
sS'governance'
p2699
F0.5
sS'almost'
p2700
F0.07692307692307693
sS'alfonseca'
p2701
F1.0
sS'automate'
p2702
F0.5
sS'6'
p2703
F0.16891891891891891
sS'taken'
p2704
F0.3170731707317073
sS'markets'
p2705
F0.26666666666666666
sS'authorization'
p2706
F1.0
sS'more'
p2707
F0.15841584158415842
sS'teen'
p2708
F0.4
sS'flat'
p2709
F0.4
sS'israel'
p2710
F0.2727272727272727
sS'door'
p2711
F0.3333333333333333
sS'eisenbrandt'
p2712
F1.0
sS'ejected'
p2713
F0.5
sS'engaged'
p2714
F0.2
sS'company'
p2715
F0.10179640718562874
sS'patrolmen'
p2716
F1.0
sS'manali'
p2717
F1.0
sS'site'
p2718
F0.13793103448275862
sS'tested'
p2719
F0.25
sS'willumstad'
p2720
F0.5
sS'broke'
p2721
F0.4
sS'particular'
p2722
F0.5
sS'known'
p2723
F0.16129032258064516
sS'objections'
p2724
F1.0
sS'sleeping'
p2725
F1.0
sS'brendsel'
p2726
F0.3333333333333333
sS'town'
p2727
F0.05263157894736842
sS'hardware'
p2728
F0.4
sS'none'
p2729
F0.25
sS'include'
p2730
F0.16666666666666666
sS'hour'
p2731
F0.2222222222222222
sS'offender'
p2732
F1.0
sS'miodrag'
p2733
F1.0
sS'science'
p2734
F0.45454545454545453
sS'pataki'
p2735
F0.6666666666666666
sS'coalition'
p2736
F0.5
sS'intercepted'
p2737
F1.0
sS'guards'
p2738
F0.25
sS'remain'
p2739
F0.11764705882352941
sS'nine'
p2740
F0.1724137931034483
sS'atari'
p2741
F1.0
sS'learn'
p2742
F0.5
sS'yemen'
p2743
F1.0
sS'allergan'
p2744
F0.5
sS'history'
p2745
F0.09523809523809523
sS'anaheim'
p2746
F1.0
sS'bashir'
p2747
F0.14285714285714285
sS'scam'
p2748
F1.0
sS'adviser'
p2749
F0.3333333333333333
sS'rodriguez'
p2750
F0.5
sS'jury'
p2751
F0.23076923076923078
sS'share'
p2752
F0.33663366336633666
sS'boycott'
p2753
F0.5
sS'states'
p2754
F0.21052631578947367
sS'prodi'
p2755
F0.3333333333333333
sS'minimum'
p2756
F0.5
sS'strutt'
p2757
F1.0
sS'grokster'
p2758
F1.0
sS'gallon'
p2759
F0.3333333333333333
sS'prisons'
p2760
F0.5
sS'axis'
p2761
F1.0
sS'huge'
p2762
F0.15384615384615385
sS'needs'
p2763
F0.18181818181818182
sS'court'
p2764
F0.2198581560283688
sS'hyoid'
p2765
F1.0
sS'imminent'
p2766
F0.25
sS'acts'
p2767
F0.25
sS'peregrine'
p2768
F1.0
sS'conducted'
p2769
F0.0625
sS'stayed'
p2770
F0.16666666666666666
sS'maps'
p2771
F1.0
sS'causing'
p2772
F0.125
sS'larsen'
p2773
F1.0
sS'riling'
p2774
F1.0
sS'earnings'
p2775
F0.1111111111111111
sS'sacred'
p2776
F0.25
sS'speeding'
p2777
F1.0
sS'waved'
p2778
F0.5
sS'elpida'
p2779
F0.5
sS'lakes'
p2780
F0.5
sS'619'
p2781
F0.5
sS'tried'
p2782
F0.14285714285714285
sS'spitzer'
p2783
F0.25
sS'uprising'
p2784
F1.0
sS'610'
p2785
F1.0
sS'616'
p2786
F0.5
sS'tesco'
p2787
F1.0
sS'minds'
p2788
F0.3333333333333333
sS'terrorist'
p2789
F0.10714285714285714
sS'blood'
p2790
F0.29411764705882354
sS'mortgage'
p2791
F0.2
sS'gates'
p2792
F0.5
sS'costner'
p2793
F1.0
sS'pleaded'
p2794
F0.05555555555555555
sS'disappearances'
p2795
F0.3333333333333333
sS'response'
p2796
F0.08333333333333333
sS'proclaimed'
p2797
F1.0
sS'a'
p2798
F0.2113022113022113
sS'planet'
p2799
F0.125
sS'troopers'
p2800
F0.5
sS'crowded'
p2801
F1.0
sS'coat'
p2802
F1.0
sS'quoted'
p2803
F0.25
sS'whitley'
p2804
F0.5
sS'overnight'
p2805
F0.1
sS'sca'
p2806
F1.0
sS'meat'
p2807
F0.25
sS'sodomy'
p2808
F1.0
sS'shore'
p2809
F0.25
sS'broadcasting'
p2810
F0.5
sS'media'
p2811
F0.19230769230769232
sS'banks'
p2812
F0.2222222222222222
sS'geographic'
p2813
F0.3333333333333333
sS'dream'
p2814
F0.5
sS'playing'
p2815
F0.16666666666666666
sS'davey'
p2816
F1.0
sS'chicks'
p2817
F1.0
sS'help'
p2818
F0.2
sS'september'
p2819
F0.10256410256410256
sS'embraer'
p2820
F0.6666666666666666
sS'soon'
p2821
F0.1875
sS'installed'
p2822
F0.5
sS'radar'
p2823
F1.0
sS'thermal'
p2824
F0.5
sS'paper'
p2825
F0.25
sS'through'
p2826
F0.11842105263157894
sS'committee'
p2827
F0.2127659574468085
sS'committed'
p2828
F0.5
sS'coatbridge'
p2829
F1.0
sS'broadway'
p2830
F0.25
sS'avenue'
p2831
F0.3333333333333333
sS'its'
p2832
F0.1536050156739812
sS'roots'
p2833
F1.0
sS'developer'
p2834
F0.2
sS'24'
p2835
F0.058823529411764705
sS'25'
p2836
F0.20833333333333334
sS'laced'
p2837
F0.09523809523809523
sS'27'
p2838
F0.2571428571428571
sS'20'
p2839
F0.2361111111111111
sS'21'
p2840
F0.1111111111111111
sS'22'
p2841
F0.1590909090909091
sS'23'
p2842
F0.08695652173913043
sS'jacoby'
p2843
F1.0
sS'ottawa'
p2844
F1.0
sS'dila'
p2845
F1.0
sS'28'
p2846
F0.24390243902439024
sS'29'
p2847
F0.2857142857142857
sS'actually'
p2848
F0.25
sS'symptoms'
p2849
F0.21428571428571427
sS'argued'
p2850
F0.1
sS'detected'
p2851
F0.2
sS'reuters'
p2852
F0.4
sS'davydenko'
p2853
F0.5
sS'systems'
p2854
F0.25
sS'stephen'
p2855
F0.125
sS'speech'
p2856
F0.1875
sS'argentina'
p2857
F0.5
sS'team'
p2858
F0.0625
sS'naacp'
p2859
F1.0
sS'fines'
p2860
F0.4
sS'northwest'
p2861
F0.2
sS'wouldn'
p2862
F0.14285714285714285
sS'hurting'
p2863
F0.3333333333333333
sS'good'
p2864
F0.09523809523809523
sS'return'
p2865
F0.23809523809523808
sS'manila'
p2866
F0.6666666666666666
sS'food'
p2867
F0.14814814814814814
sS'hunter'
p2868
F0.6666666666666666
sS'ralphs'
p2869
F0.5
sS'protesting'
p2870
F0.16666666666666666
sS'blumenthal'
p2871
F1.0
sS'shuttle'
p2872
F0.07692307692307693
sS'ces'
p2873
F1.0
sS'commodore'
p2874
F0.3333333333333333
sS'milestone'
p2875
F1.0
sS'communities'
p2876
F0.16666666666666666
sS'rambus'
p2877
F0.2
sS'somewhere'
p2878
F0.3333333333333333
sS'perkins'
p2879
F0.4
sS'association'
p2880
F0.27586206896551724
sS'diary'
p2881
F1.0
sS'imprisoned'
p2882
F0.5
sS'pregnant'
p2883
F0.3333333333333333
sS'always'
p2884
F0.1
sS'fetch'
p2885
F0.5
sS'intervene'
p2886
F0.75
sS'kanaan'
p2887
F1.0
sS'someone'
p2888
F0.2
sS'habits'
p2889
F0.5
sS'jefferson'
p2890
F0.6666666666666666
sS'proportion'
p2891
F0.3333333333333333
sS'found'
p2892
F0.16666666666666666
sS'shocking'
p2893
F1.0
sS'rowland'
p2894
F0.25
sS'joel'
p2895
F1.0
sS'trailer'
p2896
F0.25
sS'predatory'
p2897
F1.0
sS'barrels'
p2898
F0.4444444444444444
sS'status'
p2899
F0.07142857142857142
sS'harm'
p2900
F0.25
sS'begged'
p2901
F1.0
sS'416'
p2902
F1.0
sS'weight'
p2903
F0.2222222222222222
sS'short'
p2904
F0.05
sS'house'
p2905
F0.19402985074626866
sS'energy'
p2906
F0.2
sS'hard'
p2907
F0.3
sS'reduce'
p2908
F0.1
sS'soledad'
p2909
F1.0
sS'gun'
p2910
F0.2857142857142857
sS'msblast'
p2911
F1.0
sS'stronger'
p2912
F0.14285714285714285
sS'punitive'
p2913
F1.0
sS'fewer'
p2914
F0.2222222222222222
sS'zahid'
p2915
F1.0
sS'todd'
p2916
F1.0
sS'organised'
p2917
F1.0
sS'operation'
p2918
F0.3181818181818182
sS'balance'
p2919
F0.25
sS'event'
p2920
F0.2
sS'really'
p2921
F0.14285714285714285
sS'gus'
p2922
F1.0
sS'funding'
p2923
F0.125
sS'alcohol'
p2924
F0.5
sS'blacks'
p2925
F0.5
sS'reese'
p2926
F1.0
sS'robert'
p2927
F0.2916666666666667
sS'since'
p2928
F0.22764227642276422
sS'temporary'
p2929
F0.3333333333333333
sS'research'
p2930
F0.1111111111111111
sS'hayden'
p2931
F1.0
sS'ftc'
p2932
F0.2222222222222222
sS'health'
p2933
F0.2608695652173913
sS'hill'
p2934
F0.125
sS'7'
p2935
F0.14049586776859505
sS'learners'
p2936
F1.0
sS'issue'
p2937
F0.09090909090909091
sS'fled'
p2938
F0.3333333333333333
sS'outrageous'
p2939
F0.3333333333333333
sS'assist'
p2940
F0.5
sS'strain'
p2941
F0.5
sS'wales'
p2942
F0.5
sS'lawrence'
p2943
F0.3333333333333333
sS'friday'
p2944
F0.15517241379310345
sS'olds'
p2945
F0.3333333333333333
sS'bombshell'
p2946
F1.0
sS'symbian'
p2947
F0.5
sS'difficulty'
p2948
F0.3333333333333333
sS'execute'
p2949
F1.0
sS'members'
p2950
F0.08163265306122448
sS'imagine'
p2951
F0.3333333333333333
sS'put'
p2952
F0.17391304347826086
sS'attendant'
p2953
F0.3333333333333333
sS'beginning'
p2954
F0.08333333333333333
sS'obesity'
p2955
F0.5
sS'lag'
p2956
F1.0
sS'guest'
p2957
F1.0
sS'us30yt'
p2958
F0.9
sS'director'
p2959
F0.275
sS'winokur'
p2960
F0.5
sS'benefits'
p2961
F0.16666666666666666
sS'strasbourg'
p2962
F1.0
sS'bulger'
p2963
F0.5
sS'computers'
p2964
F0.1875
sS'positioning'
p2965
F1.0
sS'so'
p2966
F0.10606060606060606
sS'american'
p2967
F0.1590909090909091
sS'restored'
p2968
F0.5
sS'expecting'
p2969
F0.125
sS'circuit'
p2970
F0.36363636363636365
sS'automobile'
p2971
F1.0
sS'syria'
p2972
F0.2
sS'pilots'
p2973
F0.5
sS'fallen'
p2974
F0.16666666666666666
sS'francs'
p2975
F0.4
sS'major'
p2976
F0.05555555555555555
sS'precautionary'
p2977
F1.0
sS'lamas'
p2978
F0.5
sS'feel'
p2979
F0.2222222222222222
sS'relate'
p2980
F1.0
sS'sydney'
p2981
F0.3333333333333333
sS'number'
p2982
F0.11764705882352941
sS'feet'
p2983
F0.1111111111111111
sS'dust'
p2984
F1.0
sS'reservists'
p2985
F1.0
sS'revolution'
p2986
F0.5
sS'done'
p2987
F0.1875
sS'islamiyah'
p2988
F0.25
sS'fees'
p2989
F0.14285714285714285
sS'helicopter'
p2990
F0.16666666666666666
sS'says'
p2991
F0.0784313725490196
sS'heights'
p2992
F0.25
sS'several'
p2993
F0.20967741935483872
sS'stage'
p2994
F0.07142857142857142
sS'burke'
p2995
F0.5
sS'gpl'
p2996
F0.5
sS'militant'
p2997
F0.3333333333333333
sS'story'
p2998
F0.35714285714285715
sS'fuller'
p2999
F1.0
sS'jew'
p3000
F1.0
sS'leading'
p3001
F0.22727272727272727
sS'riyadh'
p3002
F0.5
sS'threatening'
p3003
F0.16666666666666666
sS'least'
p3004
F0.20833333333333334
sS'checkpoint'
p3005
F0.5
sS'regulation'
p3006
F0.3333333333333333
sS'station'
p3007
F0.3125
sS'smile'
p3008
F0.75
sS'statement'
p3009
F0.0625
sS'regained'
p3010
F0.5
sS'biased'
p3011
F1.0
sS'meester'
p3012
F1.0
sS'nigeria'
p3013
F0.5
sS'compartment'
p3014
F1.0
sS'southern'
p3015
F0.1111111111111111
sS'challenge'
p3016
F0.16666666666666666
sS'store'
p3017
F0.16666666666666666
sS'listed'
p3018
F0.16666666666666666
sS'selling'
p3019
F0.1
sS'option'
p3020
F0.5714285714285714
sS'behind'
p3021
F0.2
sS'exploded'
p3022
F0.25
sS'hotel'
p3023
F0.16666666666666666
sS'park'
p3024
F0.11764705882352941
sS'immediate'
p3025
F0.2
sS'treasurer'
p3026
F0.5
sS'part'
p3027
F0.125
sS'favorable'
p3028
F0.375
sS'word'
p3029
F0.1
sS'doctors'
p3030
F0.14814814814814814
sS'taxable'
p3031
F1.0
sS'interviewer'
p3032
F1.0
sS'unrealistic'
p3033
F1.0
sS'percentage'
p3034
F0.3181818181818182
sS'king'
p3035
F0.3333333333333333
sS'financing'
p3036
F0.2
sS'john'
p3037
F0.3191489361702128
sS'titans'
p3038
F1.0
sS'iranian'
p3039
F0.5
sS'double'
p3040
F0.058823529411764705
sS'863'
p3041
F0.5
sS'aims'
p3042
F1.0
sS'recording'
p3043
F0.25
sS'pennsylvania'
p3044
F0.18181818181818182
sS'ishtar'
p3045
F1.0
sS'marriage'
p3046
F0.21428571428571427
sS'unbroken'
p3047
F1.0
sS'cloudburst'
p3048
F1.0
sS'salazar'
p3049
F0.3333333333333333
sS'hume'
p3050
F1.0
sS'sister'
p3051
F0.3333333333333333
sS'toward'
p3052
F0.14285714285714285
sS'treated'
p3053
F0.16666666666666666
sS'sentenced'
p3054
F0.3333333333333333
sS'motivation'
p3055
F1.0
sS'indonesia'
p3056
F0.16666666666666666
sS'strengthen'
p3057
F0.5
sS'seth'
p3058
F1.0
sS'62'
p3059
F0.05263157894736842
sS'alongside'
p3060
F0.3333333333333333
sS'philippine'
p3061
F0.75
sS'guarding'
p3062
F0.3333333333333333
sS'fighting'
p3063
F0.13333333333333333
sS'blond'
p3064
F0.3333333333333333
sS'concentration'
p3065
F1.0
sS'fought'
p3066
F0.6666666666666666
sS'collapse'
p3067
F0.3333333333333333
sS'lie'
p3068
F0.5
sS'wilson'
p3069
F0.25
sS'built'
p3070
F0.2222222222222222
sS'evasion'
p3071
F1.0
sS'mccabe'
p3072
F1.0
sS'check'
p3073
F0.3333333333333333
sS'blanca'
p3074
F1.0
sS'self'
p3075
F0.2857142857142857
sS'friends'
p3076
F0.25
sS'officers'
p3077
F0.2
sS'targets'
p3078
F0.3
sS'also'
p3079
F0.11020408163265306
sS'articles'
p3080
F0.5
sS'labour'
p3081
F0.25
sS'chairman'
p3082
F0.20833333333333334
sS'hemphill'
p3083
F0.5
sS'finding'
p3084
F0.1111111111111111
sS'heslop'
p3085
F1.0
sS'hutchison'
p3086
F1.0
sS'siemens'
p3087
F0.3333333333333333
sS'province'
p3088
F0.1111111111111111
sS'play'
p3089
F0.23529411764705882
sS'added'
p3090
F0.058823529411764705
sS'hires'
p3091
F1.0
sS'patterson'
p3092
F1.0
sS'headstones'
p3093
F0.5
sS'cargo'
p3094
F0.14285714285714285
sS'goldman'
p3095
F0.125
sS'victim'
p3096
F0.5
sS'reach'
p3097
F0.3
sS'chart'
p3098
F0.4
sS'77'
p3099
F0.07692307692307693
sS'most'
p3100
F0.13793103448275862
sS'virus'
p3101
F0.2631578947368421
sS'74'
p3102
F0.125
sS'sponsored'
p3103
F0.3333333333333333
sS'plan'
p3104
F0.16279069767441862
sS'significant'
p3105
F0.15
sS'70'
p3106
F0.1
sS'nothing'
p3107
F0.15384615384615385
sS'accepting'
p3108
F0.5
sS'kay'
p3109
F0.6666666666666666
sS'approved'
p3110
F0.04
sS'soared'
p3111
F0.3333333333333333
sS'78'
p3112
F0.2727272727272727
sS'salary'
p3113
F0.1111111111111111
sS'muscle'
p3114
F0.5
sS'quorum'
p3115
F1.0
sS'newsmagazine'
p3116
F0.5
sS'windows'
p3117
F0.3888888888888889
sS'unsealed'
p3118
F0.3333333333333333
sS'clear'
p3119
F0.1
sS'chicago'
p3120
F0.15384615384615385
sS'cover'
p3121
F0.2
sS'traditional'
p3122
F0.16666666666666666
sS'charitable'
p3123
F0.3333333333333333
sS'barred'
p3124
F1.0
sS'passersby'
p3125
F1.0
sS'comdex'
p3126
F1.0
sS'poured'
p3127
F0.5
sS'clean'
p3128
F0.25
sS'usual'
p3129
F0.25
sS'microsoft'
p3130
F0.15873015873015872
sS'lying'
p3131
F0.16666666666666666
sS'joining'
p3132
F0.3333333333333333
sS'belding'
p3133
F1.0
sS'contracted'
p3134
F0.3333333333333333
sS'mexico'
p3135
F0.1
sS'rebels'
p3136
F0.07692307692307693
sS'gold'
p3137
F0.6
sS'cdc'
p3138
F0.3333333333333333
sS'608'
p3139
F1.0
sS'jaret'
p3140
F0.5
sS'scattered'
p3141
F0.3333333333333333
sS'aired'
p3142
F0.16666666666666666
sS'taikonauts'
p3143
F1.0
sS'nasdaq'
p3144
F0.32727272727272727
sS'session'
p3145
F0.3333333333333333
sS'relation'
p3146
F0.5
sS'cds'
p3147
F0.3333333333333333
sS'defender'
p3148
F0.2
sS'rebell'
p3149
F1.0
sS'fine'
p3150
F0.5
sS'networks'
p3151
F0.125
sS'frankie'
p3152
F1.0
sS'impact'
p3153
F0.14285714285714285
sS'cell'
p3154
F0.10526315789473684
sS'giant'
p3155
F0.16666666666666666
sS'believe'
p3156
F0.06666666666666667
sS'noah'
p3157
F1.0
sS'northern'
p3158
F0.14285714285714285
sS'justice'
p3159
F0.23255813953488372
sS'writes'
p3160
F0.2
sS'writer'
p3161
F0.3333333333333333
sS'distributed'
p3162
F0.16666666666666666
sS'1914'
p3163
F1.0
sS'penalty'
p3164
F0.13333333333333333
sS'failed'
p3165
F0.06666666666666667
sS'flights'
p3166
F0.2857142857142857
sS'randy'
p3167
F0.5
sS'8'
p3168
F0.12264150943396226
sS'cuba'
p3169
F0.2
sS'syndicated'
p3170
F1.0
sS'cuomo'
p3171
F0.4444444444444444
sS'england'
p3172
F0.2222222222222222
sS'toronto'
p3173
F0.3
sS'his'
p3174
F0.1679790026246719
sS'hit'
p3175
F0.21428571428571427
sS'hiv'
p3176
F0.5
sS'meanwhile'
p3177
F0.1
sS'cholera'
p3178
F0.5
sS'banned'
p3179
F0.16666666666666666
sS'express'
p3180
F0.3333333333333333
sS'celnik'
p3181
F1.0
sS'kind'
p3182
F0.2
sS'trees'
p3183
F1.0
sS'cheaper'
p3184
F0.3333333333333333
sS'yeager'
p3185
F1.0
sS'capsule'
p3186
F0.3333333333333333
sS'courage'
p3187
F0.16666666666666666
sS'breast'
p3188
F0.14285714285714285
sS'theft'
p3189
F0.375
sS'reporters'
p3190
F0.2
sS'during'
p3191
F0.06666666666666667
sS'silk'
p3192
F1.0
sS'sunni'
p3193
F0.3333333333333333
sS'him'
p3194
F0.16666666666666666
sS'whitehall'
p3195
F1.0
sS'alexander'
p3196
F0.5
sS'quattrone'
p3197
F0.1111111111111111
sS'huff'
p3198
F1.0
sS'sriyanto'
p3199
F1.0
sS'progressive'
p3200
F1.0
sS'suarez'
p3201
F1.0
sS'performers'
p3202
F0.5
sS'miccosukee'
p3203
F1.0
sS'remove'
p3204
F0.2
sS'alert'
p3205
F1.0
sS'interim'
p3206
F0.1
sS'forlong'
p3207
F0.5
sS'common'
p3208
F0.05263157894736842
sS'recommendations'
p3209
F0.2
sS'x'
p3210
F0.2
sS'peak'
p3211
F0.2
sS'river'
p3212
F0.16666666666666666
sS'wrote'
p3213
F0.2
sS'restaurants'
p3214
F0.2857142857142857
sS'bars'
p3215
F0.5
sS'set'
p3216
F0.12903225806451613
sS'tambe'
p3217
F1.0
sS'intelligence'
p3218
F0.14285714285714285
sS'elf'
p3219
F1.0
sS'activists'
p3220
F0.16666666666666666
sS'865g'
p3221
F1.0
sS'sex'
p3222
F0.06666666666666667
sS'see'
p3223
F0.2
sS'defense'
p3224
F0.17142857142857143
sS'leslie'
p3225
F0.5
sS'are'
p3226
F0.11011904761904762
sS'framingham'
p3227
F1.0
sS'musicians'
p3228
F0.5
sS'tender'
p3229
F0.5
sS'sen'
p3230
F0.17647058823529413
sS'11th'
p3231
F0.25
sS'forthcoming'
p3232
F1.0
sS'hole'
p3233
F0.25
sS'embarking'
p3234
F1.0
sS'declined'
p3235
F0.25
sS'youth'
p3236
F0.5
sS'probable'
p3237
F0.2857142857142857
sS'expert'
p3238
F0.5
sS'matter'
p3239
F0.21428571428571427
sS'guinea'
p3240
F1.0
sS'user'
p3241
F0.07692307692307693
sS'retired'
p3242
F0.2
sS'libraries'
p3243
F0.4
sS'unions'
p3244
F0.25
sS'won'
p3245
F0.22580645161290322
sS'managers'
p3246
F0.1111111111111111
sS'probably'
p3247
F0.36363636363636365
sS'burned'
p3248
F0.2222222222222222
sS'conditions'
p3249
F0.08333333333333333
sS'slaying'
p3250
F0.3333333333333333
sS'risks'
p3251
F0.42857142857142855
sS'europe'
p3252
F0.23529411764705882
sS'sexual'
p3253
F0.09090909090909091
sS'korea'
p3254
F0.26666666666666666
sS'recently'
p3255
F0.13636363636363635
sS'cabrera'
p3256
F0.5
sS'missing'
p3257
F0.125
sS'goold'
p3258
F1.0
sS'sold'
p3259
F0.15384615384615385
sS'nashville'
p3260
F0.5
sS'confiscated'
p3261
F1.0
sS'aircraft'
p3262
F0.11764705882352941
sS'ranked'
p3263
F0.14285714285714285
sS'coffee'
p3264
F0.5
sS'factually'
p3265
F0.5
sS'opposition'
p3266
F0.16666666666666666
sS'dividend'
p3267
F0.2857142857142857
sS'pagan'
p3268
F1.0
sS'hardline'
p3269
F0.5
sS'steverson'
p3270
F1.0
sS'legislature'
p3271
F0.14285714285714285
sS'league'
p3272
F0.1111111111111111
sS'c'
p3273
F0.10714285714285714
sS'tshabalala'
p3274
F1.0
sS'last'
p3275
F0.19487179487179487
sS'reverse'
p3276
F1.0
sS'license'
p3277
F0.14285714285714285
sS'restaurant'
p3278
F0.3333333333333333
sS'memorial'
p3279
F0.2222222222222222
sS'annual'
p3280
F0.2
sS'taikong'
p3281
F1.0
sS'foreign'
p3282
F0.2571428571428571
sS'sensitive'
p3283
F0.25
sS'connection'
p3284
F0.1111111111111111
sS'became'
p3285
F0.16666666666666666
sS'boyd'
p3286
F0.3333333333333333
sS'hemenway'
p3287
F0.5
sS'experimental'
p3288
F0.5
sS'swirled'
p3289
F1.0
sS'yukos'
p3290
F1.0
sS'words'
p3291
F0.5
sS'yards'
p3292
F0.3333333333333333
sS'hackers'
p3293
F0.3333333333333333
sS'headed'
p3294
F0.25
sS'underwent'
p3295
F0.14285714285714285
sS'smith'
p3296
F0.2777777777777778
sS'loan'
p3297
F0.3
sS'sweep'
p3298
F0.3333333333333333
sS'community'
p3299
F0.21428571428571427
sS'apache'
p3300
F0.75
sS'tennessee'
p3301
F0.3333333333333333
sS'simply'
p3302
F0.14285714285714285
sS'church'
p3303
F0.21212121212121213
sS'owe'
p3304
F1.0
sS'mattress'
p3305
F0.4
sS'sammy'
p3306
F0.5
sS'bench'
p3307
F1.0
sS'expensive'
p3308
F0.14285714285714285
sS'decline'
p3309
F0.18181818181818182
sS'described'
p3310
F0.21428571428571427
sS'raise'
p3311
F0.14285714285714285
sS'planetary'
p3312
F1.0
sS'stegman'
p3313
F1.0
sS'create'
p3314
F0.2
sS'political'
p3315
F0.1111111111111111
sS'enron'
p3316
F0.7142857142857143
sS'convicted'
p3317
F0.2631578947368421
sS'rivals'
p3318
F1.0
sS'secret'
p3319
F0.2857142857142857
sS'ireland'
p3320
F1.0
sS'collected'
p3321
F0.4
sS'freddie'
p3322
F0.2
sS'diet'
p3323
F0.2
sS'movieline'
p3324
F1.0
sS'meeting'
p3325
F0.125
sS'newbury'
p3326
F1.0
sS'walter'
p3327
F0.5
sS'kathy'
p3328
F1.0
sS'resting'
p3329
F1.0
sS'lived'
p3330
F0.14285714285714285
sS'flight'
p3331
F0.07142857142857142
sS'comcast'
p3332
F0.3333333333333333
sS'gay'
p3333
F0.42857142857142855
sS'boy'
p3334
F0.25
sS'fire'
p3335
F0.18421052631578946
sS'mind'
p3336
F0.125
sS'firefighters'
p3337
F0.14285714285714285
sS'covello'
p3338
F1.0
sS'gas'
p3339
F0.07692307692307693
sS'great'
p3340
F0.3076923076923077
sS'else'
p3341
F0.3333333333333333
sS'moment'
p3342
F0.3333333333333333
sS'fund'
p3343
F0.25
sS'gam'
p3344
F1.0
sS'lives'
p3345
F0.21428571428571427
sS'whitney'
p3346
F0.3333333333333333
sS'demand'
p3347
F0.16666666666666666
sS'prices'
p3348
F0.19230769230769232
sS'ways'
p3349
F0.125
sS'towns'
p3350
F0.5
sS'presented'
p3351
F0.08333333333333333
sS'niro'
p3352
F0.5
sS'pierce'
p3353
F1.0
sS'hitchcock'
p3354
F1.0
sS'deskbound'
p3355
F1.0
sS'look'
p3356
F0.25
sS'grains'
p3357
F1.0
sS'pedestrian'
p3358
F0.5
sS'solid'
p3359
F0.5
sS'judicial'
p3360
F0.25
sS'humanitarian'
p3361
F0.5
sS'bill'
p3362
F0.14
sS'piniella'
p3363
F1.0
sS'budget'
p3364
F0.09523809523809523
sS'governor'
p3365
F0.15384615384615385
sS'kodak'
p3366
F0.6
sS'dusty'
p3367
F1.0
sS'while'
p3368
F0.19767441860465115
sS'pressed'
p3369
F0.25
sS'reliably'
p3370
F1.0
sS'error'
p3371
F0.2857142857142857
sS'kissing'
p3372
F1.0
sS'abet'
p3373
F1.0
sS'ross'
p3374
F1.0
sS'richter'
p3375
F1.0
sS'robin'
p3376
F0.3333333333333333
sS'scheduled'
p3377
F0.07142857142857142
sS'pound'
p3378
F0.25
sS'century'
p3379
F0.6666666666666666
sS'cents'
p3380
F0.4
sS'guilty'
p3381
F0.043478260869565216
sS'kroger'
p3382
F0.3333333333333333
sS'lawtey'
p3383
F1.0
sS'geologists'
p3384
F1.0
sS'36'
p3385
F0.14285714285714285
sS'derailment'
p3386
F1.0
sS'rim'
p3387
F0.25
sS'triple'
p3388
F0.5
sS'ltte'
p3389
F1.0
sS'34'
p3390
F0.045454545454545456
sS'elements'
p3391
F0.25
sS'around'
p3392
F0.16666666666666666
sS'funny'
p3393
F0.6666666666666666
sS'italy'
p3394
F0.42857142857142855
sS'shaw'
p3395
F1.0
sS'grant'
p3396
F0.38461538461538464
sS'improvement'
p3397
F0.09090909090909091
sS'problems'
p3398
F0.06666666666666667
sS'gagne'
p3399
F0.5
sS'shackle'
p3400
F1.0
sS'complaints'
p3401
F0.1111111111111111
sS'virtually'
p3402
F0.16666666666666666
sS'widely'
p3403
F0.3333333333333333
sS'eventual'
p3404
F1.0
sS'9'
p3405
F0.24786324786324787
sS'disenfranchise'
p3406
F1.0
sS'ruth'
p3407
F0.3333333333333333
sS'daughters'
p3408
F0.25
sS'higher'
p3409
F0.2777777777777778
sS'development'
p3410
F0.1
sS'used'
p3411
F0.1509433962264151
sS'lawyers'
p3412
F0.2
sS'tower'
p3413
F0.5
sS'concealment'
p3414
F1.0
sS'forced'
p3415
F0.08333333333333333
sS'bonus'
p3416
F0.2
sS'camera'
p3417
F0.5
sS'blair'
p3418
F0.058823529411764705
sS'overweight'
p3419
F0.16666666666666666
sS'yesterday'
p3420
F0.07142857142857142
sS'judiciary'
p3421
F0.5
sS'countersued'
p3422
F0.5
sS'fleischer'
p3423
F0.3333333333333333
sS'flown'
p3424
F0.5
sS'arrived'
p3425
F0.14285714285714285
sS'cleaning'
p3426
F0.5
sS'contractors'
p3427
F0.5
sS'wrongful'
p3428
F1.0
sS'dine'
p3429
F1.0
sS'culvert'
p3430
F0.5
sS'recent'
p3431
F0.12
sS'kurdish'
p3432
F0.25
sS'lower'
p3433
F0.21428571428571427
sS'shiites'
p3434
F0.5
sS'equalled'
p3435
F1.0
sS'poland'
p3436
F0.5
sS'limbaugh'
p3437
F0.16666666666666666
sS'lanes'
p3438
F0.5
sS'spent'
p3439
F0.16666666666666666
sS'analysis'
p3440
F0.5
sS'iannarelli'
p3441
F1.0
sS'person'
p3442
F0.125
sS'de'
p3443
F0.25
sS'edge'
p3444
F0.3333333333333333
sS'flags'
p3445
F0.25
sS'auditor'
p3446
F0.5
sS'charing'
p3447
F0.5
sS'howe'
p3448
F1.0
sS'swiss'
p3449
F0.3333333333333333
sS'organization'
p3450
F0.09090909090909091
sS'tass'
p3451
F0.5
sS'gsm'
p3452
F1.0
sS'spend'
p3453
F0.3333333333333333
sS'leone'
p3454
F1.0
sS'yankees'
p3455
F0.5
sS'buell'
p3456
F1.0
sS'watching'
p3457
F0.25
sS'sakamoto'
p3458
F1.0
sS'prowers'
p3459
F1.0
sS'polled'
p3460
F0.3333333333333333
sS'named'
p3461
F0.21739130434782608
sS'beth'
p3462
F1.0
sS'isolated'
p3463
F0.5
sS'arrests'
p3464
F0.08333333333333333
sS'littlewoods'
p3465
F1.0
sS'thorough'
p3466
F0.3333333333333333
sS'world'
p3467
F0.21739130434782608
sS'elect'
p3468
F0.6666666666666666
sS'taiwan'
p3469
F0.2857142857142857
sS'prince'
p3470
F0.3333333333333333
sS'bethany'
p3471
F0.5
sS'1800s'
p3472
F1.0
sS'profitable'
p3473
F0.5
sS'altria'
p3474
F0.6666666666666666
sS'cut'
p3475
F0.2972972972972973
sS'duque'
p3476
F0.5
sS'informal'
p3477
F0.5
sS'surprises'
p3478
F1.0
sS'workers'
p3479
F0.4411764705882353
sS'danger'
p3480
F0.3333333333333333
sS'cemetery'
p3481
F0.5
sS'weakness'
p3482
F0.6
sS'signals'
p3483
F0.25
sS'coulibaly'
p3484
F1.0
sS'governmental'
p3485
F1.0
sS'internal'
p3486
F0.21428571428571427
sS'parents'
p3487
F0.18181818181818182
sS'questioned'
p3488
F0.25
sS'homeland'
p3489
F0.2857142857142857
sS'celia'
p3490
F1.0
sS'ballots'
p3491
F1.0
sS'gerberding'
p3492
F0.5
sS'administrative'
p3493
F0.2
sS'excited'
p3494
F0.5
sS'finder'
p3495
F0.2
sS'nasa'
p3496
F0.05555555555555555
sS'drop'
p3497
F0.14285714285714285
sS'customers'
p3498
F0.2631578947368421
sS'australia'
p3499
F0.2
sS'victims'
p3500
F0.43333333333333335
sS'outspoken'
p3501
F0.5
sS'emergency'
p3502
F0.17647058823529413
sS'big'
p3503
F0.21052631578947367
sS'bid'
p3504
F0.18181818181818182
sS'pounds'
p3505
F0.125
sS'genetically'
p3506
F0.25
sS'game'
p3507
F0.3333333333333333
sS'marked'
p3508
F0.25
sS'clemency'
p3509
F1.0
sS'mares'
p3510
F1.0
sS'bit'
p3511
F0.2727272727272727
sS'332'
p3512
F1.0
sS'moody'
p3513
F1.0
sS'summit'
p3514
F0.2
sS'avalanche'
p3515
F1.0
sS'layoffs'
p3516
F0.25
sS'd'
p3517
F0.2903225806451613
sS'signal'
p3518
F0.6666666666666666
sS'commanders'
p3519
F0.5
sS'stay'
p3520
F0.14285714285714285
sS'communications'
p3521
F0.14285714285714285
sS'arthur'
p3522
F1.0
sS'continue'
p3523
F0.045454545454545456
sS'yields'
p3524
F1.0
sS'howell'
p3525
F0.3333333333333333
sS'popular'
p3526
F0.5
sS'rheumatoid'
p3527
F0.5
sS'names'
p3528
F0.125
sS'premium'
p3529
F1.0
sS'sketch'
p3530
F0.3333333333333333
sS'google'
p3531
F0.5
sS'parade'
p3532
F1.0
sS'diocese'
p3533
F0.25
sS'senate'
p3534
F0.38636363636363635
sS'spring'
p3535
F0.25
sS'some'
p3536
F0.1487603305785124
sS'back'
p3537
F0.047619047619047616
sS'phone'
p3538
F0.2222222222222222
sS'delegation'
p3539
F0.3333333333333333
sS'loser'
p3540
F0.6
sS'strongest'
p3541
F0.2
sS'economic'
p3542
F0.25
sS'palm'
p3543
F0.2222222222222222
sS'pricing'
p3544
F0.2
sS'scandal'
p3545
F0.1
sS'lightning'
p3546
F0.5
sS'kleinwort'
p3547
F1.0
sS'brent'
p3548
F0.75
sS'electric'
p3549
F0.125
sS'delivered'
p3550
F0.25
sS'shelley'
p3551
F0.4
sS'saddam'
p3552
F0.18518518518518517
sS'mummy'
p3553
F1.0
sS'affects'
p3554
F0.2857142857142857
sS'decision'
p3555
F0.0784313725490196
sS'proficient'
p3556
F0.5
sS'pep'
p3557
F0.3333333333333333
sS'integration'
p3558
F1.0
sS'per'
p3559
F0.1956521739130435
sS'edition'
p3560
F0.6
sS'religion'
p3561
F0.42857142857142855
sS'pen'
p3562
F0.3333333333333333
sS'excluding'
p3563
F0.4
sS'epic'
p3564
F1.0
sS'worst'
p3565
F0.25
sS't'
p3566
F0.15
sS'be'
p3567
F0.15236051502145923
sS'claimed'
p3568
F0.08333333333333333
sS'run'
p3569
F0.20588235294117646
sS'ba'
p3570
F0.2
sS'460'
p3571
F1.0
sS'authorisation'
p3572
F1.0
sS'300'
p3573
F0.16666666666666666
sS'kao'
p3574
F1.0
sS'martin'
p3575
F0.5714285714285714
sS'continuing'
p3576
F0.09090909090909091
sS'agreement'
p3577
F0.09523809523809523
sS'stem'
p3578
F0.25
sS'cedar'
p3579
F0.5
sS'studabaker'
p3580
F0.25
sS'ovarian'
p3581
F1.0
sS'santa'
p3582
F0.14285714285714285
sS'become'
p3583
F0.13043478260869565
sS'lottery'
p3584
F0.14285714285714285
sS'by'
p3585
F0.1519434628975265
sS'pervez'
p3586
F1.0
sS'ruddock'
p3587
F1.0
sS'faith'
p3588
F0.5
sS'changing'
p3589
F0.3333333333333333
sS'anything'
p3590
F0.2
sS'76'
p3591
F0.16666666666666666
sS'weakened'
p3592
F0.4
sS'75'
p3593
F0.16
sS'lieberman'
p3594
F0.25
sS'torsella'
p3595
F1.0
sS'jazeera'
p3596
F1.0
sS'ounce'
p3597
F0.5
sS'dialog'
p3598
F0.5
sS'germany'
p3599
F0.3157894736842105
sS'replacement'
p3600
F0.25
sS'mikhail'
p3601
F1.0
sS'angry'
p3602
F0.2
sS'block'
p3603
F0.25
sS'pollution'
p3604
F0.25
sS'disclosure'
p3605
F0.3333333333333333
sS'skeptics'
p3606
F0.5
sS'clinton'
p3607
F0.07692307692307693
sS'colorado'
p3608
F0.16666666666666666
sS'procter'
p3609
F1.0
sS'into'
p3610
F0.11818181818181818
sS'within'
p3611
F0.1935483870967742
sS'operational'
p3612
F1.0
sS'invading'
p3613
F0.5
sS'servers'
p3614
F0.13333333333333333
sS'martinez'
p3615
F0.3333333333333333
sS'services'
p3616
F0.3055555555555556
sS'carlton'
p3617
F0.25
sS'master'
p3618
F0.3333333333333333
sS'seasons'
p3619
F0.25
sS'tenzing'
p3620
F1.0
sS'contreras'
p3621
F1.0
sS'gautam'
p3622
F1.0
sS'pentagon'
p3623
F0.07692307692307693
sS'unfair'
p3624
F0.5
sS'bankruptcy'
p3625
F0.4
sS'ontario'
p3626
F0.5
sS'computer'
p3627
F0.07692307692307693
sS'few'
p3628
F0.043478260869565216
sS'turcotte'
p3629
F1.0
sS'mehalba'
p3630
F1.0
sS'bargaining'
p3631
F1.0
sS'fast'
p3632
F0.14285714285714285
sS'capacitance'
p3633
F1.0
sS'asteroid'
p3634
F1.0
sS'infected'
p3635
F0.15789473684210525
sS'dodgers'
p3636
F1.0
sS'suit'
p3637
F0.0625
sS'forward'
p3638
F0.3
sS'andy'
p3639
F0.25
sS'shaklee'
p3640
F1.0
sS'turning'
p3641
F0.25
sS'packages'
p3642
F0.3333333333333333
sS'himself'
p3643
F0.07142857142857142
sS'elsewhere'
p3644
F0.125
sS'inches'
p3645
F0.25
sS'babcock'
p3646
F0.5
sS'collapsed'
p3647
F1.0
sS'murphy'
p3648
F0.3333333333333333
sS'slump'
p3649
F0.25
sS'khamenei'
p3650
F1.0
sS'inched'
p3651
F0.5
sS'exe'
p3652
F1.0
sS'reed'
p3653
F0.625
sS'authority'
p3654
F0.2
sS'filed'
p3655
F0.23076923076923078
sS'russian'
p3656
F0.21428571428571427
sS'brookdale'
p3657
F0.5
sS'line'
p3658
F0.16666666666666666
sS'raising'
p3659
F0.1
sS'posted'
p3660
F0.09090909090909091
sS'directed'
p3661
F0.5
sS'cramping'
p3662
F1.0
sS'patriot'
p3663
F1.0
sS'sounds'
p3664
F0.2
sS'up'
p3665
F0.14522821576763487
sS'us'
p3666
F0.12
sS'par'
p3667
F0.5
sS'international'
p3668
F0.2
sS'mobile'
p3669
F0.2857142857142857
sS'116'
p3670
F1.0
sS'those'
p3671
F0.07407407407407407
sS'marginally'
p3672
F1.0
sS'uk'
p3673
F0.1111111111111111
sS'planes'
p3674
F0.5
sS'viacom'
p3675
F0.2
sS'chelsea'
p3676
F0.5
sS'called'
p3677
F0.06896551724137931
sS'purcell'
p3678
F1.0
sS'bell'
p3679
F0.5
sS'inch'
p3680
F0.2
sS'associated'
p3681
F0.23529411764705882
sS'monumental'
p3682
F0.5
sS'armstrong'
p3683
F0.5
sS'metal'
p3684
F0.2
sS'janzen'
p3685
F1.0
sS'doesn'
p3686
F0.1111111111111111
sS'package'
p3687
F0.3
sS'coordinator'
p3688
F1.0
sS'engineering'
p3689
F0.125
sS'baldacci'
p3690
F1.0
sS'rally'
p3691
F0.2727272727272727
sS'powderject'
p3692
F0.3333333333333333
sS'graham'
p3693
F0.36363636363636365
sS'kidney'
p3694
F0.6666666666666666
sS'irrespective'
p3695
F0.3333333333333333
sS'freshly'
p3696
F1.0
sS'independents'
p3697
F1.0
sS'nepal'
p3698
F1.0
sS'tone'
p3699
F0.5
sS'peace'
p3700
F0.125
sS'uranium'
p3701
F0.3333333333333333
sS'barbour'
p3702
F0.25
sS'application'
p3703
F0.125
sS'politicians'
p3704
F0.25
sS'points'
p3705
F0.610062893081761
sS'psrc'
p3706
F1.0
sS'income'
p3707
F0.42857142857142855
sS'department'
p3708
F0.1746031746031746
sS'aunt'
p3709
F0.5
sS'northmoor'
p3710
F1.0
sS'manhattan'
p3711
F0.09090909090909091
sS'outsourced'
p3712
F1.0
sS'dale'
p3713
F0.5
sS'garber'
p3714
F1.0
sS'users'
p3715
F0.1111111111111111
sS'rabies'
p3716
F0.5
sS'kansas'
p3717
F0.5714285714285714
sS'prosecution'
p3718
F0.5
sS'vivace'
p3719
F1.0
sS'prepared'
p3720
F0.23076923076923078
sS'william'
p3721
F0.2
sS'convention'
p3722
F0.3333333333333333
sS'meaning'
p3723
F0.4
sS'sorenstam'
p3724
F0.3333333333333333
sS'allowing'
p3725
F0.15384615384615385
sS'caldera'
p3726
F1.0
sS'hair'
p3727
F1.0
sS'sides'
p3728
F0.3333333333333333
sS'leaflets'
p3729
F1.0
sS'mood'
p3730
F1.0
sS'ago'
p3731
F0.14285714285714285
sS'bases'
p3732
F0.3333333333333333
sS'land'
p3733
F0.1111111111111111
sS'e'
p3734
F0.075
sS'vice'
p3735
F0.14814814814814814
sS'ending'
p3736
F0.1
sS'dvd'
p3737
F0.25
sS'age'
p3738
F0.23076923076923078
sS'vehicles'
p3739
F0.125
sS'wards'
p3740
F1.0
sS'walked'
p3741
F0.14285714285714285
sS'responded'
p3742
F0.5
sS'2002'
p3743
F0.11538461538461539
sS'2003'
p3744
F0.1282051282051282
sS'2000'
p3745
F0.22580645161290322
sS'2001'
p3746
F0.18
sS'2006'
p3747
F0.4444444444444444
sS'2004'
p3748
F0.2222222222222222
sS'2005'
p3749
F0.125
sS'walker'
p3750
F0.3333333333333333
sS'fresh'
p3751
F0.4
sS'kapanda'
p3752
F1.0
sS'requires'
p3753
F0.16666666666666666
sS'having'
p3754
F0.24
sS'once'
p3755
F0.23076923076923078
sS'hampton'
p3756
F0.8
sS'minors'
p3757
F1.0
sS'wd'
p3758
F1.0
sS'advisory'
p3759
F0.25
sS'scratch'
p3760
F1.0
sS'thanking'
p3761
F1.0
sS'results'
p3762
F0.07142857142857142
sS'steve'
p3763
F0.2222222222222222
sS'eds'
p3764
F0.25
sS'ge'
p3765
F0.5714285714285714
sS'notify'
p3766
F1.0
sS'mosul'
p3767
F0.3333333333333333
sS'broader'
p3768
F0.12903225806451613
sS'served'
p3769
F0.14285714285714285
sS'go'
p3770
F0.125
sS'congratulate'
p3771
F0.5
sS'gm'
p3772
F0.125
sS'centers'
p3773
F0.23529411764705882
sS'issues'
p3774
F0.125
sS'seemed'
p3775
F0.2857142857142857
sS'legato'
p3776
F0.2857142857142857
sS'simon'
p3777
F0.14285714285714285
sS'graves'
p3778
F1.0
sS'turkish'
p3779
F0.25
sS'peanut'
p3780
F0.3333333333333333
sS'concerned'
p3781
F0.5
sS'directband'
p3782
F1.0
sS'young'
p3783
F0.18181818181818182
sS'send'
p3784
F0.3076923076923077
sS'rudder'
p3785
F1.0
sS'attackers'
p3786
F0.1111111111111111
sS'cartier'
p3787
F1.0
sS'rollout'
p3788
F1.0
sS'blaze'
p3789
F0.5
sS'excluded'
p3790
F0.5
sS'stable'
p3791
F0.3
sS'quarterly'
p3792
F0.14285714285714285
sS'details'
p3793
F0.08333333333333333
sS'maryland'
p3794
F0.125
sS'worldcom'
p3795
F0.5
sS'sent'
p3796
F0.14285714285714285
sS'brigade'
p3797
F0.5
sS'shevaun'
p3798
F1.0
sS'verkerk'
p3799
F1.0
sS'queen'
p3800
F0.5
sS'tempore'
p3801
F1.0
sS'continues'
p3802
F0.14285714285714285
sS'account'
p3803
F0.16666666666666666
sS'miners'
p3804
F0.6666666666666666
sS'huddled'
p3805
F1.0
sS'annika'
p3806
F0.5
sS'avalos'
p3807
F1.0
sS'manipulated'
p3808
F0.3333333333333333
sS'cellular'
p3809
F1.0
sS'thode'
p3810
F1.0
sS'abduction'
p3811
F0.5
sS'acres'
p3812
F0.3
sS'drinking'
p3813
F0.16666666666666666
sS'infrared'
p3814
F1.0
sS'continued'
p3815
F0.05263157894736842
sS'bryant'
p3816
F0.16666666666666666
sS'nausea'
p3817
F1.0
sS'dennehy'
p3818
F0.23076923076923078
sS'entire'
p3819
F0.1111111111111111
sS'magic'
p3820
F0.5
sS'routinely'
p3821
F0.6666666666666666
sS'targeting'
p3822
F1.0
sS'harbor'
p3823
F0.5
sS'knight'
p3824
F0.6666666666666666
sS'notes'
p3825
F0.16666666666666666
sS'f'
p3826
F0.2
sS'michael'
p3827
F0.1724137931034483
sS'lombardi'
p3828
F1.0
sS'hal'
p3829
F1.0
sS'deals'
p3830
F0.14285714285714285
sS'threat'
p3831
F0.11764705882352941
sS'rappelled'
p3832
F1.0
sS'coming'
p3833
F0.07142857142857142
sS'verdict'
p3834
F0.16666666666666666
sS'manifestly'
p3835
F1.0
sS'massachusetts'
p3836
F0.2727272727272727
sS'912'
p3837
F0.5
sS'ceasefire'
p3838
F1.0
sS'ouvriere'
p3839
F1.0
sS'cap'
p3840
F0.4
sS'carter'
p3841
F0.3333333333333333
sS'protect'
p3842
F0.21052631578947367
sS'flu'
p3843
F0.3333333333333333
sS'participate'
p3844
F0.14285714285714285
sS'scientist'
p3845
F0.25
sS'rivers'
p3846
F0.3333333333333333
sS'jump'
p3847
F0.5
sS'kirkuk'
p3848
F1.0
sS'video'
p3849
F0.125
sS'equal'
p3850
F0.25
sS'pornography'
p3851
F0.5
sS'dynamics'
p3852
F1.0
sS'rivera'
p3853
F1.0
sS'index'
p3854
F0.7222222222222222
sS'staffers'
p3855
F0.5
sS'nevada'
p3856
F0.25
sS'plays'
p3857
F0.6
sS'business'
p3858
F0.08064516129032258
sS'morse'
p3859
F1.0
sS'thirds'
p3860
F0.5
sS'sheraton'
p3861
F1.0
sS'multimedia'
p3862
F0.5
sS'expressed'
p3863
F0.16666666666666666
sS'find'
p3864
F0.09090909090909091
sS'access'
p3865
F0.10526315789473684
sS'opponents'
p3866
F0.125
sS'19th'
p3867
F1.0
sS'turnaround'
p3868
F1.0
sS'mounted'
p3869
F0.3333333333333333
sS'capital'
p3870
F0.05263157894736842
sS'telling'
p3871
F0.25
sS'firms'
p3872
F0.16666666666666666
sS'patton'
p3873
F1.0
sS'manto'
p3874
F1.0
sS'exercise'
p3875
F0.25
sS'body'
p3876
F0.3
sS'lutheran'
p3877
F0.5
sS'justification'
p3878
F0.25
sS'led'
p3879
F0.21739130434782608
sS'lee'
p3880
F0.35294117647058826
sS'stance'
p3881
F0.3333333333333333
sS'exchange'
p3882
F0.3723404255319149
sS'nitpick'
p3883
F1.0
sS'gathered'
p3884
F0.25
sS'440'
p3885
F1.0
sS'commercial'
p3886
F0.1
sS'cac'
p3887
F0.5
sS'slogans'
p3888
F1.0
sS'ramsey'
p3889
F0.5
sS'healing'
p3890
F0.6666666666666666
sS'others'
p3891
F0.09090909090909091
sS'luis'
p3892
F0.3333333333333333
sS'safer'
p3893
F0.25
sS'jockeys'
p3894
F0.5
sS'parkway'
p3895
F1.0
sS'luhrmann'
p3896
F1.0
sS'39'
p3897
F0.14285714285714285
sS'38'
p3898
F0.10526315789473684
sS'talent'
p3899
F1.0
sS'copyright'
p3900
F0.2
sS'kissinger'
p3901
F1.0
sS'wesley'
p3902
F1.0
sS'33'
p3903
F0.14814814814814814
sS'32'
p3904
F0.5
sS'31'
p3905
F0.36
sS'larger'
p3906
F0.25
sS'37'
p3907
F0.3
sS'alaska'
p3908
F0.6
sS'35'
p3909
F0.13636363636363635
sS'later'
p3910
F0.08333333333333333
sS'suggests'
p3911
F0.125
sS'1535'
p3912
F1.0
sS'products'
p3913
F0.15
sS'stimulating'
p3914
F1.0
sS'warnings'
p3915
F0.16666666666666666
sS'california'
p3916
F0.18181818181818182
sS'opinion'
p3917
F0.3
sS'residents'
p3918
F0.18181818181818182
sS'maker'
p3919
F0.10526315789473684
sS'coria'
p3920
F1.0
sS'examinations'
p3921
F1.0
sS'riva'
p3922
F1.0
sS'apple'
p3923
F0.1111111111111111
sS'clark'
p3924
F0.4
sS'deputy'
p3925
F0.3076923076923077
sS'win'
p3926
F0.125
sS'wim'
p3927
F0.3333333333333333
sS'innocence'
p3928
F0.25
sS'garlic'
p3929
F1.0
sS'sgt'
p3930
F0.4444444444444444
sS'private'
p3931
F0.1875
sS'mariners'
p3932
F1.0
sS'notwithstanding'
p3933
F1.0
sS'manny'
p3934
F1.0
sS'gordon'
p3935
F0.3333333333333333
sS'wis'
p3936
F1.0
sS'privately'
p3937
F0.3333333333333333
sS'apply'
p3938
F0.25
sS'ninth'
p3939
F0.2857142857142857
sS'singing'
p3940
F1.0
sS'standing'
p3941
F0.25
sS'use'
p3942
F0.13333333333333333
sS'andreas'
p3943
F1.0
sS'from'
p3944
F0.21772639691714837
sS'fec'
p3945
F1.0
sS'ministers'
p3946
F0.2
sS'next'
p3947
F0.23809523809523808
sS'process'
p3948
F0.2
sS'wayne'
p3949
F0.2
sS'vehicle'
p3950
F0.2857142857142857
sS'themselves'
p3951
F0.13333333333333333
sS'jonathan'
p3952
F0.5
sS'scrimshaw'
p3953
F1.0
sS'belgian'
p3954
F0.5
sS'possession'
p3955
F0.25
sS'puccini'
p3956
F1.0
sS'parliament'
p3957
F0.4
sS'biblical'
p3958
F1.0
sS'846'
p3959
F1.0
sS'started'
p3960
F0.05555555555555555
sS'becomes'
p3961
F0.25
sS'benchmark'
p3962
F0.46153846153846156
sS'occurred'
p3963
F0.1
sS'train'
p3964
F0.4
sS'israelis'
p3965
F0.25
sS'agent'
p3966
F0.1111111111111111
sS'ashamed'
p3967
F0.3333333333333333
sS'hardened'
p3968
F1.0
sS'payrolls'
p3969
F0.6666666666666666
sS'mitsubishi'
p3970
F0.5
sS'appointed'
p3971
F0.3333333333333333
sS'women'
p3972
F0.16
sS'customer'
p3973
F0.06666666666666667
sS'escaped'
p3974
F0.2857142857142857
sS'lendingtree'
p3975
F0.5714285714285714
sS'animals'
p3976
F0.16666666666666666
sS'sanctions'
p3977
F0.5
sS'this'
p3978
F0.16666666666666666
sS'rosenthal'
p3979
F1.0
sS'athlete'
p3980
F1.0
sS'when'
p3981
F0.08450704225352113
sS'jailed'
p3982
F1.0
sS'ashcroft'
p3983
F0.5
sS'lumber'
p3984
F0.3333333333333333
sS'jemaah'
p3985
F0.16666666666666666
sS'island'
p3986
F0.21428571428571427
sS'meet'
p3987
F0.06666666666666667
sS'closing'
p3988
F0.125
sS'hargadon'
p3989
F1.0
sS'didnt'
p3990
F1.0
sS'scatter'
p3991
F1.0
sS'dropped'
p3992
F0.043478260869565216
sS'control'
p3993
F0.34615384615384615
sS'arafat'
p3994
F0.4
sS'chok'
p3995
F1.0
sS'employs'
p3996
F0.5
sS'links'
p3997
F0.3333333333333333
sS'do'
p3998
F0.14285714285714285
sS'calculation'
p3999
F1.0
sS'tax'
p4000
F0.18181818181818182
sS'purposes'
p4001
F1.0
sS'high'
p4002
F0.2777777777777778
sS'policing'
p4003
F1.0
sS'tab'
p4004
F1.0
sS'bones'
p4005
F0.5
sS'publicity'
p4006
F0.6666666666666666
sS'malenchenko'
p4007
F0.5
sS'trumpet'
p4008
F1.0
sS'rape'
p4009
F0.6666666666666666
sS'united'
p4010
F0.18478260869565216
sS'syndrome'
p4011
F0.3333333333333333
sS'democracy'
p4012
F0.1
sS'alkebulan'
p4013
F1.0
sS'portage'
p4014
F1.0
sS'six'
p4015
F0.21568627450980393
sS'hadley'
p4016
F1.0
sS'hanover'
p4017
F1.0
sS'georg'
p4018
F1.0
sS'traders'
p4019
F0.3333333333333333
sS'brian'
p4020
F0.3333333333333333
sS'forest'
p4021
F0.25
sS'animal'
p4022
F0.4
sS'hormones'
p4023
F0.2
sS'instead'
p4024
F0.15384615384615385
sS'restitution'
p4025
F1.0
sS'sin'
p4026
F0.5
sS'stock'
p4027
F0.32061068702290074
sS'profile'
p4028
F0.3076923076923077
sS'buildings'
p4029
F0.2857142857142857
sS'endorsements'
p4030
F0.5
sS'blocks'
p4031
F1.0
sS'attend'
p4032
F0.14285714285714285
sS'series'
p4033
F0.10526315789473684
sS'fran'
p4034
F1.0
sS'baton'
p4035
F0.5
sS'testimony'
p4036
F0.125
sS'tied'
p4037
F0.25
sS'bothered'
p4038
F1.0
sS'abuse'
p4039
F0.3333333333333333
sS'dominick'
p4040
F1.0
sS'ethnic'
p4041
F0.16666666666666666
sS'restructuring'
p4042
F0.25
sS'agendas'
p4043
F1.0
sS'spelling'
p4044
F0.5
sS'toddlers'
p4045
F0.5
sS'prostate'
p4046
F0.4
sS'solidarity'
p4047
F0.2
sS'afi'
p4048
F1.0
sS'tomato'
p4049
F1.0
sS'bombers'
p4050
F0.16666666666666666
sS'boeing'
p4051
F0.42857142857142855
sS'sensenbrenner'
p4052
F1.0
sS'light'
p4053
F0.21052631578947367
sS'reminders'
p4054
F1.0
sS'remedy'
p4055
F0.3333333333333333
sS'gigabyte'
p4056
F1.0
sS'processor'
p4057
F0.07692307692307693
sS'zabel'
p4058
F1.0
sS'chief'
p4059
F0.24271844660194175
sS'advocates'
p4060
F0.5
sS'allow'
p4061
F0.18181818181818182
sS'furious'
p4062
F1.0
sS'stakes'
p4063
F0.3333333333333333
sS'journey'
p4064
F0.25
sS'houston'
p4065
F0.2857142857142857
sS'evolutionary'
p4066
F1.0
sS'elia'
p4067
F1.0
sS'producer'
p4068
F0.14285714285714285
sS'tribe'
p4069
F0.3333333333333333
sS'coolly'
p4070
F1.0
sS'despite'
p4071
F0.07142857142857142
sS'reserves'
p4072
F0.3333333333333333
sS'outlook'
p4073
F0.14285714285714285
sS'outage'
p4074
F0.2
sS'repentant'
p4075
F1.0
sS'alliance'
p4076
F0.75
sS'stoppers'
p4077
F1.0
sS'hampshire'
p4078
F0.5
sS'subpoenaed'
p4079
F0.3333333333333333
sS'agricultural'
p4080
F0.5
sS'mcgrath'
p4081
F1.0
sS'trusts'
p4082
F1.0
sS'warren'
p4083
F1.0
sS'perfect'
p4084
F0.5
sS'superior'
p4085
F0.4
sS'la'
p4086
F0.1111111111111111
sS'll'
p4087
F0.125
sS'biotechnology'
p4088
F0.3333333333333333
sS'environmentalists'
p4089
F1.0
sS'labor'
p4090
F0.16666666666666666
sS'tyrone'
p4091
F1.0
sS'lt'
p4092
F0.2
sS'lu'
p4093
F0.75
sS'marsh'
p4094
F1.0
sS'reilly'
p4095
F1.0
sS'latitude'
p4096
F1.0
sS'mitchell'
p4097
F0.2
sS'criminal'
p4098
F0.2608695652173913
sS'defining'
p4099
F0.6666666666666666
sS'pixel'
p4100
F1.0
sS'pending'
p4101
F0.08333333333333333
sS'eur'
p4102
F1.0
sS'talabani'
p4103
F1.0
sS'freeman'
p4104
F1.0
sS'applause'
p4105
F0.25
sS'crash'
p4106
F0.1111111111111111
sS'contention'
p4107
F1.0
sS'dac'
p4108
F1.0
sS'errands'
p4109
F1.0
sS'dan'
p4110
F0.2
sS'practice'
p4111
F0.25
sS'indexing'
p4112
F1.0
sS'runs'
p4113
F1.0
sS'hate'
p4114
F0.5
sS'essex'
p4115
F0.5
sS'158'
p4116
F1.0
sS'gelber'
p4117
F1.0
sS'cutting'
p4118
F0.5
sS'courtroom'
p4119
F0.125
sS'hands'
p4120
F0.07692307692307693
sS'front'
p4121
F0.1111111111111111
sS'republican'
p4122
F0.1
sS'dax'
p4123
F0.5
sS'day'
p4124
F0.09473684210526316
sS'presidential'
p4125
F0.4
sS'applicants'
p4126
F1.0
sS'liberia'
p4127
F0.2
sS'february'
p4128
F0.25
sS'cowboy'
p4129
F1.0
sS'installment'
p4130
F0.5
sS'rohrbough'
p4131
F1.0
sS'warned'
p4132
F0.07142857142857142
sS'university'
p4133
F0.18181818181818182
sS'armidale'
p4134
F1.0
sS'ruined'
p4135
F1.0
sS'identified'
p4136
F0.07142857142857142
sS'vulnerabilities'
p4137
F0.5
sS'morris'
p4138
F0.3333333333333333
sS'safeway'
p4139
F1.0
sS'sprayed'
p4140
F1.0
sS'truth'
p4141
F1.0
sS'pools'
p4142
F0.5
sS'involvement'
p4143
F0.3333333333333333
sS'beneath'
p4144
F0.5
sS'traces'
p4145
F0.75
sS'andreassi'
p4146
F1.0
sS'warner'
p4147
F0.16666666666666666
sS'subset'
p4148
F0.5
sS'fare'
p4149
F0.75
sS'kethley'
p4150
F1.0
sS'dixie'
p4151
F1.0
sS'homeless'
p4152
F0.5
sS'map'
p4153
F0.2
sS'hong'
p4154
F0.375
sS'barnett'
p4155
F0.5
sS'700'
p4156
F0.5
sS'related'
p4157
F0.058823529411764705
sS'society'
p4158
F0.2
sS'88'
p4159
F0.3
sS'89'
p4160
F0.18181818181818182
sS'increases'
p4161
F0.3333333333333333
sS'doubled'
p4162
F0.25
sS'ourselves'
p4163
F0.5
sS'measure'
p4164
F0.25
sS'82'
p4165
F0.3333333333333333
sS'our'
p4166
F0.18181818181818182
sS'80'
p4167
F0.26666666666666666
sS'86'
p4168
F0.2222222222222222
sS'87'
p4169
F0.16666666666666666
sS'84'
p4170
F0.14285714285714285
sS'85'
p4171
F0.2222222222222222
sS'semen'
p4172
F0.3333333333333333
sS'matt'
p4173
F0.5
sS'matrix'
p4174
F0.16666666666666666
sS'entertainment'
p4175
F0.09090909090909091
sS'nikia'
p4176
F0.3333333333333333
sS'rep'
p4177
F0.1
sS'chaos'
p4178
F1.0
sS'astronomy'
p4179
F1.0
sS'wholly'
p4180
F0.3333333333333333
sS'priscilla'
p4181
F1.0
sS'activist'
p4182
F0.3333333333333333
sS'039'
p4183
F1.0
sS'exporting'
p4184
F0.5
sS'electronics'
p4185
F0.25
sS'calif'
p4186
F0.07142857142857142
sS'integrated'
p4187
F0.3333333333333333
sS'announced'
p4188
F0.043478260869565216
sS'glover'
p4189
F1.0
sS'dissented'
p4190
F0.5
sS'franc'
p4191
F0.3
sS'shut'
p4192
F0.1
sS'christensen'
p4193
F1.0
sS'ecb'
p4194
F0.2
sS'interactions'
p4195
F1.0
sS'frank'
p4196
F0.3333333333333333
sS'activity'
p4197
F0.2
sS'delegates'
p4198
F0.3333333333333333
sS'588'
p4199
F1.0
sS'lytle'
p4200
F1.0
sS'ministerial'
p4201
F0.75
sS'release'
p4202
F0.125
sS'completely'
p4203
F0.3333333333333333
sS'york'
p4204
F0.32231404958677684
sS'pogany'
p4205
F1.0
sS'conservatives'
p4206
F0.8
sS'regulatory'
p4207
F0.25
sS'van'
p4208
F0.8
sS'149'
p4209
F0.3333333333333333
sS'princess'
p4210
F0.25
sS'ask'
p4211
F0.125
sS'resumed'
p4212
F1.0
sS'squad'
p4213
F0.5
sS'hostile'
p4214
F0.25
sS'dubbed'
p4215
F0.3333333333333333
sS'could'
p4216
F0.1592920353982301
sS'sherpa'
p4217
F1.0
sS'florida'
p4218
F0.3
sS'confident'
p4219
F0.2
sS'keep'
p4220
F0.2413793103448276
sS'bird'
p4221
F0.3333333333333333
sS'shred'
p4222
F1.0
sS'ltd'
p4223
F0.6666666666666666
sS'davis'
p4224
F0.3076923076923077
sS'hussein'
p4225
F0.23529411764705882
sS'retail'
p4226
F0.15384615384615385
sS'museum'
p4227
F0.5
sS'south'
p4228
F0.23076923076923078
sS'458'
p4229
F1.0
sS'worse'
p4230
F0.2
sS'audubon'
p4231
F1.0
sS'pines'
p4232
F0.5
sS'taco'
p4233
F1.0
sS'scene'
p4234
F0.1111111111111111
sS'unsupported'
p4235
F1.0
sS'strategic'
p4236
F0.3333333333333333
sS'implementing'
p4237
F0.3333333333333333
sS'muhammad'
p4238
F0.3333333333333333
sS'phil'
p4239
F0.16666666666666666
sS'hurdle'
p4240
F0.5
sS'sosa'
p4241
F0.3333333333333333
sS'reached'
p4242
F0.15789473684210525
sS'interceptions'
p4243
F1.0
sS'nyse'
p4244
F0.23529411764705882
sS'vetoed'
p4245
F0.25
sS'playlist'
p4246
F1.0
sS'management'
p4247
F0.2903225806451613
sS'fair'
p4248
F0.16666666666666666
sS'ibm'
p4249
F0.08
sS'ordering'
p4250
F1.0
sS'nomination'
p4251
F0.25
sS'system'
p4252
F0.19148936170212766
sS'relations'
p4253
F0.4
sS'transuranic'
p4254
F1.0
sS'inmate'
p4255
F0.3333333333333333
sS'their'
p4256
F0.1323529411764706
sS'attack'
p4257
F0.16981132075471697
sS'intermediate'
p4258
F1.0
sS'sergeant'
p4259
F0.5
sS'297'
p4260
F1.0
sS'selenski'
p4261
F0.3333333333333333
sS'pakistani'
p4262
F0.25
sS'final'
p4263
F0.4
sS'disdain'
p4264
F1.0
sS'interests'
p4265
F0.3333333333333333
sS'enforcement'
p4266
F0.13333333333333333
sS'software'
p4267
F0.07894736842105263
sS'sealed'
p4268
F0.2857142857142857
sS'wendell'
p4269
F1.0
sS'academy'
p4270
F0.5
sS'juli'
p4271
F0.5
sS'lou'
p4272
F1.0
sS'amsterdam'
p4273
F0.5
sS'argos'
p4274
F1.0
sS'groomer'
p4275
F1.0
sS'allied'
p4276
F0.16666666666666666
sS'july'
p4277
F0.17647058823529413
sS'herself'
p4278
F0.25
sS'haven'
p4279
F0.2857142857142857
sS'detection'
p4280
F0.5
sS'colleagues'
p4281
F0.14285714285714285
sS'succeeded'
p4282
F1.0
sS'parson'
p4283
F0.2
sS'lion'
p4284
F1.0
sS'labourers'
p4285
F1.0
sS'bee'
p4286
F1.0
sS'patients'
p4287
F0.21739130434782608
sS'malpractice'
p4288
F0.5
sS'maybe'
p4289
F1.0
sS'mackey'
p4290
F1.0
sS'bare'
p4291
F0.5
sS'providing'
p4292
F0.4
sS'creditors'
p4293
F0.5
sS'backfire'
p4294
F1.0
sS'drunk'
p4295
F1.0
sS'passports'
p4296
F0.3333333333333333
sS'villains'
p4297
F1.0
sS'tabs'
p4298
F0.5
sS'lines'
p4299
F0.13333333333333333
sS'cohen'
p4300
F0.16666666666666666
sS'cattle'
p4301
F0.5
sS'scottsville'
p4302
F1.0
sS'recessed'
p4303
F1.0
sS'have'
p4304
F0.11886304909560723
sS'close'
p4305
F0.08771929824561403
sS'need'
p4306
F0.15789473684210525
sS'st'
p4307
F0.1111111111111111
sS'border'
p4308
F0.2857142857142857
sS'biggs'
p4309
F0.5
sS'complete'
p4310
F0.2
sS'catholic'
p4311
F0.2857142857142857
sS'microphone'
p4312
F0.2
sS'documents'
p4313
F0.1875
sS'governors'
p4314
F1.0
sS'brokers'
p4315
F1.0
sS'mia'
p4316
F1.0
sS'agency'
p4317
F0.1388888888888889
sS'mills'
p4318
F0.14285714285714285
sS'mid'
p4319
F0.25
sS'mechanism'
p4320
F0.25
sS'contact'
p4321
F0.25
sS'infractions'
p4322
F1.0
sS'relatives'
p4323
F0.3333333333333333
sS'ahold'
p4324
F1.0
sS'trespassing'
p4325
F0.5
sS'which'
p4326
F0.1366120218579235
sS'funds'
p4327
F0.08333333333333333
sS'linda'
p4328
F0.5
sS'korean'
p4329
F0.1
sS'martha'
p4330
F0.25
sS'hp'
p4331
F0.42857142857142855
sS'medals'
p4332
F1.0
sS'worldwide'
p4333
F0.08333333333333333
sS'56'
p4334
F0.17647058823529413
sS'ray'
p4335
F0.5
sS'mcgill'
p4336
F1.0
sS'combat'
p4337
F0.2
sS'centre'
p4338
F0.2
sS'leakers'
p4339
F1.0
sS'zhaoxing'
p4340
F1.0
sS'who'
p4341
F0.1840277777777778
sS'jorge'
p4342
F1.0
sS'mcgreevey'
p4343
F0.5
sS'hostages'
p4344
F0.3333333333333333
sS'eight'
p4345
F0.22727272727272727
sS'prisoner'
p4346
F0.6666666666666666
sS'nuisance'
p4347
F1.0
sS'dmitri'
p4348
F1.0
sS'sally'
p4349
F1.0
sS'sfc'
p4350
F0.5
sS'assemblies'
p4351
F1.0
sS'volume'
p4352
F0.21428571428571427
sS'stereo'
p4353
F1.0
sS'hanford'
p4354
F1.0
sS'request'
p4355
F0.05263157894736842
sS'disease'
p4356
F0.17142857142857143
sS'face'
p4357
F0.2916666666666667
sS'looked'
p4358
F0.1111111111111111
sS'proceedings'
p4359
F0.14285714285714285
sS'fujitsu'
p4360
F0.6
sS'snapshot'
p4361
F1.0
sS'artificially'
p4362
F1.0
sS'movie'
p4363
F0.16666666666666666
sS'holstein'
p4364
F1.0
sS'wounded'
p4365
F0.23076923076923078
sS'491'
p4366
F0.3333333333333333
sS'outlive'
p4367
F1.0
sS'cluley'
p4368
F1.0
sS'henry'
p4369
F0.5
sS'agreed'
p4370
F0.1724137931034483
sS'charles'
p4371
F0.2
sS'woolly'
p4372
F1.0
sS'brother'
p4373
F0.1111111111111111
sS'watch'
p4374
F0.125
sS'bring'
p4375
F0.1
sS'senegal'
p4376
F1.0
sS'planning'
p4377
F0.1111111111111111
sS'democrats'
p4378
F0.25
sS'broken'
p4379
F0.4444444444444444
sS'bedroom'
p4380
F0.2
sS'dorothy'
p4381
F1.0
sS'soldiers'
p4382
F0.20833333333333334
sS'pleased'
p4383
F0.14285714285714285
sS'principal'
p4384
F0.3333333333333333
sS'devries'
p4385
F0.25
sS'highest'
p4386
F0.38095238095238093
sS'based'
p4387
F0.12658227848101267
sS'sheriff'
p4388
F0.4
sS'earned'
p4389
F0.4166666666666667
sS'jaw'
p4390
F1.0
sS'winner'
p4391
F0.1111111111111111
sS'fans'
p4392
F0.5
sS'controls'
p4393
F0.4
sS'should'
p4394
F0.21818181818181817
sS'jan'
p4395
F0.18181818181818182
sS'bombings'
p4396
F0.2
sS'tape'
p4397
F0.2
sS'employee'
p4398
F0.14285714285714285
sS'underground'
p4399
F0.3333333333333333
sS'local'
p4400
F0.19047619047619047
sS'secretaries'
p4401
F1.0
sS'hope'
p4402
F0.07142857142857142
sS'marvell'
p4403
F1.0
sS'costa'
p4404
F1.0
sS'webtv'
p4405
F1.0
sS'bonds'
p4406
F0.25
sS'fellow'
p4407
F0.125
sS'michigan'
p4408
F0.16666666666666666
sS'overall'
p4409
F0.15384615384615385
sS'bear'
p4410
F0.5
sS'likely'
p4411
F0.043478260869565216
sS'joint'
p4412
F0.3333333333333333
sS'install'
p4413
F0.25
sS'fraud'
p4414
F0.25
sS'124'
p4415
F0.3333333333333333
sS'cubs'
p4416
F0.5
sS'126'
p4417
F0.25
sS'consecutive'
p4418
F0.3333333333333333
sS'129'
p4419
F0.6666666666666666
sS'thomson'
p4420
F0.46153846153846156
sS'handgun'
p4421
F0.5
sS'compaq'
p4422
F0.5
sS'areas'
p4423
F0.07692307692307693
sS'mcnair'
p4424
F1.0
sS'following'
p4425
F0.058823529411764705
sS'steelworkers'
p4426
F1.0
sS'drayson'
p4427
F1.0
sS'tobacco'
p4428
F0.3333333333333333
sS'ended'
p4429
F0.125
sS'shopping'
p4430
F0.25
sS'h'
p4431
F0.0625
sS'quarantine'
p4432
F1.0
sS'married'
p4433
F0.2
sS'mohammed'
p4434
F0.3333333333333333
sS'hugged'
p4435
F0.3333333333333333
sS'taxes'
p4436
F0.3333333333333333
sS'calling'
p4437
F0.1
sS'handspring'
p4438
F0.25
sS'130'
p4439
F0.125
sS'she'
p4440
F0.1793103448275862
sS'wish'
p4441
F1.0
sS'including'
p4442
F0.10256410256410256
sS'raceway'
p4443
F0.5
sS'gibson'
p4444
F0.25
sS'view'
p4445
F0.1875
sS'available'
p4446
F0.15217391304347827
sS'temporarily'
p4447
F0.25
sS'acquired'
p4448
F0.3333333333333333
sS'national'
p4449
F0.23255813953488372
sS'coli'
p4450
F1.0
sS'taiwanese'
p4451
F0.5
sS'accord'
p4452
F0.5
sS'outfielder'
p4453
F0.25
sS'pelloux'
p4454
F1.0
sS'ousmane'
p4455
F1.0
sS'officials'
p4456
F0.1532258064516129
sS'powder'
p4457
F0.5
sS'desperate'
p4458
F0.3333333333333333
sS'bidders'
p4459
F0.5
sS'cold'
p4460
F0.3333333333333333
sS'packed'
p4461
F0.2
sS'situation'
p4462
F0.2
sS'closer'
p4463
F0.2
sS'strier'
p4464
F1.0
sS'wire'
p4465
F0.18181818181818182
sS'frankfort'
p4466
F0.5
sS'reform'
p4467
F0.2222222222222222
sS'nuclear'
p4468
F0.32142857142857145
sS'wathen'
p4469
F1.0
sS'favor'
p4470
F1.0
sS'state'
p4471
F0.22988505747126436
sS'hollingworth'
p4472
F0.3333333333333333
sS'injustice'
p4473
F1.0
sS'closed'
p4474
F0.20930232558139536
sS'verio'
p4475
F1.0
sS'nominees'
p4476
F1.0
sS'progress'
p4477
F0.29411764705882354
sS'colombian'
p4478
F1.0
sS'verisign'
p4479
F0.4
sS'ken'
p4480
F0.14285714285714285
sS'keynote'
p4481
F0.5
sS'handful'
p4482
F0.5
sS'rotating'
p4483
F0.5
sS'opening'
p4484
F0.1
sS'jharkhand'
p4485
F1.0
sS'pennington'
p4486
F1.0
sS'agencies'
p4487
F0.16666666666666666
sS'butts'
p4488
F1.0
sS'efficiency'
p4489
F0.5
sS'job'
p4490
F0.11764705882352941
sS'takeover'
p4491
F0.07142857142857142
sS'joe'
p4492
F0.2857142857142857
sS'key'
p4493
F0.3103448275862069
sS'group'
p4494
F0.14606741573033707
sS'precious'
p4495
F1.0
sS'lawsuit'
p4496
F0.05
sS'jon'
p4497
F0.5
sS'david'
p4498
F0.23529411764705882
sS'meyers'
p4499
F0.5
sS'pepper'
p4500
F0.25
sS'career'
p4501
F0.3333333333333333
sS'barras'
p4502
F1.0
sS'taking'
p4503
F0.23529411764705882
sS'gilbert'
p4504
F1.0
sS'incident'
p4505
F0.10526315789473684
sS'drug'
p4506
F0.23809523809523808
sS'april'
p4507
F0.2857142857142857
sS'tripled'
p4508
F0.5
sS'figures'
p4509
F0.08333333333333333
sS'marta'
p4510
F1.0
sS'safely'
p4511
F1.0
sS'jersey'
p4512
F0.125
sS'grounds'
p4513
F0.2
sS'comment'
p4514
F0.4
sS'lanarkshire'
p4515
F1.0
sS'co'
p4516
F0.11764705882352941
sS'agents'
p4517
F0.2
sS'tuesday'
p4518
F0.10091743119266056
sS'575'
p4519
F0.5
sS'bitty'
p4520
F1.0
sS'rpc'
p4521
F0.5
sS'heizler'
p4522
F1.0
sS'cousin'
p4523
F0.5
sS'phones'
p4524
F0.5
sS'kings'
p4525
F0.6666666666666666
sS'narrowed'
p4526
F1.0
sS'winning'
p4527
F0.1
sS'undergraduate'
p4528
F0.3333333333333333
sS'tikrit'
p4529
F0.3333333333333333
sS'silvio'
p4530
F0.5
sS'johnny'
p4531
F1.0
sS'gillette'
p4532
F1.0
sS'hunters'
p4533
F1.0
sS'shaikh'
p4534
F1.0
sS'copies'
p4535
F0.5555555555555556
sS'cent'
p4536
F0.09433962264150944
sS'elecia'
p4537
F1.0
sS'seasoned'
p4538
F1.0
sS'agreements'
p4539
F0.14285714285714285
sS'737'
p4540
F0.5
sS'gaza'
p4541
F0.16666666666666666
sS'indicators'
p4542
F0.5
sS'sars'
p4543
F0.25925925925925924
sS'waste'
p4544
F0.5
sS'louisiana'
p4545
F0.5
sS'summary'
p4546
F1.0
sS'partial'
p4547
F1.0
sS'hernandez'
p4548
F0.3333333333333333
sS'field'
p4549
F0.4444444444444444
sS'mike'
p4550
F0.25
sS'kingston'
p4551
F0.25
sS'controlled'
p4552
F0.25
sS'antigen'
p4553
F1.0
sS'commuter'
p4554
F1.0
sS'both'
p4555
F0.09836065573770492
sS'painted'
p4556
F0.5
sS'moved'
p4557
F0.07692307692307693
sS'airplanes'
p4558
F1.0
sS'wasserstein'
p4559
F1.0
sS'al'
p4560
F0.05555555555555555
sS'guerrillas'
p4561
F0.6666666666666666
sS'dji'
p4562
F0.35294117647058826
sS'finished'
p4563
F0.25
sS'abortions'
p4564
F0.5
sS'hijackers'
p4565
F0.6
sS'smoking'
p4566
F0.3
sS'atlanta'
p4567
F0.3076923076923077
sS'an'
p4568
F0.13350785340314136
sS'reeves'
p4569
F0.5
sS'present'
p4570
F0.14285714285714285
sS'mongolia'
p4571
F0.5
sS'homes'
p4572
F0.09523809523809523
sS'archiac'
p4573
F1.0
sS'survey'
p4574
F0.25
sS'virtual'
p4575
F0.25
sS'itch'
p4576
F1.0
sS'means'
p4577
F0.18181818181818182
sS'vicki'
p4578
F1.0
sS'harder'
p4579
F1.0
sS'as'
p4580
F0.1349206349206349
sS'value'
p4581
F0.2
sS'heaton'
p4582
F1.0
sS'will'
p4583
F0.13744075829383887
sS'monrovia'
p4584
F1.0
sS'texas'
p4585
F0.21875
sS'owns'
p4586
F0.16666666666666666
sS'eastbound'
p4587
F1.0
sS'global'
p4588
F0.03571428571428571
sS'deductible'
p4589
F0.5
sS'aiken'
p4590
F1.0
sS'discoveries'
p4591
F1.0
sS'supply'
p4592
F0.3333333333333333
sS'kosovan'
p4593
F1.0
sS'vindicated'
p4594
F1.0
sS'lakeside'
p4595
F0.5
sS'molecular'
p4596
F1.0
sS'captors'
p4597
F1.0
sS'hicks'
p4598
F0.2
sS'helped'
p4599
F0.125
sS'opportunities'
p4600
F0.25
sS'dual'
p4601
F1.0
sS'derrick'
p4602
F1.0
sS'arabia'
p4603
F0.1111111111111111
sS'minorities'
p4604
F1.0
sS'greater'
p4605
F0.09090909090909091
sS'hubbard'
p4606
F0.25
sS'wildfires'
p4607
F0.25
sS'chante'
p4608
F0.5
sS'perhaps'
p4609
F0.3333333333333333
sS'eliot'
p4610
F0.5
sS'juan'
p4611
F0.6666666666666666
sS'buddhist'
p4612
F1.0
sS'administration'
p4613
F0.15217391304347827
sS'cross'
p4614
F0.23076923076923078
sS'member'
p4615
F0.23529411764705882
sS'parts'
p4616
F0.2
sS'speaker'
p4617
F0.25
sS'helicopters'
p4618
F0.16666666666666666
sS'largest'
p4619
F0.09375
sS'units'
p4620
F0.14285714285714285
sS'party'
p4621
F0.25806451612903225
sS'terrorism'
p4622
F0.03571428571428571
sS'solution'
p4623
F0.25
sS'powell'
p4624
F0.3333333333333333
sS'difficult'
p4625
F0.1111111111111111
sS'injured'
p4626
F0.3333333333333333
sS'conflicting'
p4627
F0.6666666666666666
sS'trucks'
p4628
F0.125
sS'columbia'
p4629
F0.16666666666666666
sS'bali'
p4630
F0.2857142857142857
sS'cubic'
p4631
F1.0
sS'hospitals'
p4632
F0.2857142857142857
sS'reporting'
p4633
F0.16666666666666666
sS'effect'
p4634
F0.0625
sS'coaches'
p4635
F1.0
sS'codec'
p4636
F1.0
sS'student'
p4637
F0.16666666666666666
sS'robotic'
p4638
F0.25
sS'novell'
p4639
F0.75
sS'afghan'
p4640
F0.5
sS'judgment'
p4641
F0.25
sS'scholars'
p4642
F0.3333333333333333
sS'expand'
p4643
F0.4
sS'poultry'
p4644
F1.0
sS'transaction'
p4645
F0.2222222222222222
sS'off'
p4646
F0.046875
sS'center'
p4647
F0.3541666666666667
sS'records'
p4648
F0.06666666666666667
sS'i'
p4649
F0.2222222222222222
sS'49'
p4650
F0.5
sS'well'
p4651
F0.06976744186046512
sS'overshadowed'
p4652
F0.5
sS'antonin'
p4653
F0.16666666666666666
sS'thought'
p4654
F0.2727272727272727
sS'procurement'
p4655
F1.0
sS'banker'
p4656
F0.5
sS'command'
p4657
F0.1875
sS'english'
p4658
F0.2
sS'barricades'
p4659
F0.5
sS'position'
p4660
F0.07142857142857142
sS'decliners'
p4661
F0.5
sS'audio'
p4662
F1.0
sS'sensing'
p4663
F1.0
sS'latest'
p4664
F0.12
sS'egyptologists'
p4665
F1.0
sS'stations'
p4666
F0.2
sS'stores'
p4667
F0.3181818181818182
sS'sourced'
p4668
F1.0
sS'less'
p4669
F0.14705882352941177
sS'moments'
p4670
F0.25
sS'percent'
p4671
F0.5
sS'executive'
p4672
F0.25925925925925924
sS'batters'
p4673
F0.5
sS'forests'
p4674
F0.5
sS'sources'
p4675
F0.125
sS'clinic'
p4676
F0.3333333333333333
sS'geller'
p4677
F1.0
sS'fishing'
p4678
F0.5
sS'tough'
p4679
F1.0
sS'paul'
p4680
F0.09090909090909091
sS'illinois'
p4681
F0.375
sS'coordination'
p4682
F1.0
sS'brad'
p4683
F0.5
sS'web'
p4684
F0.02857142857142857
sS'bragging'
p4685
F1.0
sS'residential'
p4686
F1.0
sS'point'
p4687
F0.2608695652173913
sS'demographic'
p4688
F0.6666666666666666
sS'discuss'
p4689
F0.15384615384615385
sS'arresting'
p4690
F1.0
sS'arrest'
p4691
F0.14285714285714285
sS'add'
p4692
F0.5
sS'book'
p4693
F0.08333333333333333
sS'adc'
p4694
F1.0
sS'citizen'
p4695
F0.25
sS'5'
p4696
F0.15671641791044777
sS'grow'
p4697
F0.16666666666666666
sS'warrant'
p4698
F0.18181818181818182
sS'284'
p4699
F0.5
sS'gmt'
p4700
F0.2
sS'tests'
p4701
F0.25
sS'increased'
p4702
F0.15384615384615385
sS'fate'
p4703
F0.25
sS'government'
p4704
F0.17777777777777778
sS'chancellor'
p4705
F0.5
sS'priest'
p4706
F0.3333333333333333
sS'adolph'
p4707
F1.0
sS'masters'
p4708
F0.3333333333333333
sS'munich'
p4709
F1.0
sS'bluecore3'
p4710
F0.3333333333333333
sS'cruz'
p4711
F0.1111111111111111
sS'zimbabwe'
p4712
F0.3333333333333333
sS'five'
p4713
F0.2073170731707317
sS'know'
p4714
F0.12903225806451613
sS'deployment'
p4715
F1.0
sS'press'
p4716
F0.15384615384615385
sS'immediately'
p4717
F0.17857142857142858
sS'knox'
p4718
F0.3333333333333333
sS'schindlers'
p4719
F0.5
sS'richard'
p4720
F0.47368421052631576
sS'loss'
p4721
F0.2903225806451613
sS'lincoln'
p4722
F0.5
sS'motorola'
p4723
F0.6666666666666666
sS'necessary'
p4724
F0.06666666666666667
sS'like'
p4725
F0.09615384615384616
sS'lost'
p4726
F0.16666666666666666
sS'miami'
p4727
F0.3333333333333333
sS'crawled'
p4728
F1.0
sS'admitted'
p4729
F0.07692307692307693
sS'loses'
p4730
F0.6666666666666666
sS'ozone'
p4731
F0.4
sS'suffocation'
p4732
F0.5
sS'payments'
p4733
F0.14285714285714285
sS'terrible'
p4734
F0.3333333333333333
sS'january'
p4735
F0.08695652173913043
sS'bologna'
p4736
F1.0
sS'craxi'
p4737
F1.0
sS'nicolo'
p4738
F1.0
sS'amd'
p4739
F0.2
sS'italian'
p4740
F0.36363636363636365
sS'amendment'
p4741
F0.3
sS'susan'
p4742
F0.5
sS'because'
p4743
F0.13513513513513514
sS'wenders'
p4744
F1.0
sS'linux'
p4745
F0.24
sS'molestation'
p4746
F1.0
sS'library'
p4747
F0.5
sS'mosquitoes'
p4748
F1.0
sS'certain'
p4749
F0.09523809523809523
sS'114'
p4750
F0.16666666666666666
sS'117'
p4751
F0.4
sS'growth'
p4752
F0.1
sS'export'
p4753
F0.5
sS'110'
p4754
F0.3333333333333333
sS'cleveland'
p4755
F0.125
sS'proper'
p4756
F0.3333333333333333
sS'home'
p4757
F0.18840579710144928
sS'empire'
p4758
F0.25
sS'peter'
p4759
F0.5454545454545454
sS'employment'
p4760
F0.3333333333333333
sS'118'
p4761
F0.25
sS'cutters'
p4762
F0.5
sS'happens'
p4763
F0.25
sS'throughout'
p4764
F0.09090909090909091
sS'streisand'
p4765
F1.0
sS'lead'
p4766
F0.07142857142857142
sS'leak'
p4767
F0.5
sS'separate'
p4768
F0.13333333333333333
sS'hurricane'
p4769
F0.45454545454545453
sS'slide'
p4770
F0.3333333333333333
sS'demonstrators'
p4771
F0.25
sS'does'
p4772
F0.13333333333333333
sS'passion'
p4773
F0.5
sS'ferrero'
p4774
F1.0
sS'swartz'
p4775
F0.5
sS'chains'
p4776
F0.3333333333333333
sS'leader'
p4777
F0.23529411764705882
sS'woori'
p4778
F1.0
sS'biology'
p4779
F1.0
sS'journal'
p4780
F0.27586206896551724
sS'epicentre'
p4781
F0.3333333333333333
sS'pressure'
p4782
F0.375
sS'host'
p4783
F0.2
sS'conveyed'
p4784
F1.0
sS'although'
p4785
F0.043478260869565216
sS'edie'
p4786
F1.0
sS'java'
p4787
F0.125
sS'includes'
p4788
F0.09090909090909091
sS'loans'
p4789
F1.0
sS'amnesty'
p4790
F1.0
sS'panel'
p4791
F0.4166666666666667
sS'gained'
p4792
F0.20689655172413793
sS'diego'
p4793
F0.25
sS'about'
p4794
F0.2077922077922078
sS'quarter'
p4795
F0.26804123711340205
sS'carried'
p4796
F0.14285714285714285
sS'harvard'
p4797
F1.0
sS'column'
p4798
F0.3333333333333333
sS'freedom'
p4799
F0.3333333333333333
sS'ahead'
p4800
F0.16666666666666666
sS'foil'
p4801
F1.0
sS'recognized'
p4802
F0.3333333333333333
sS'nightclub'
p4803
F0.2
sS'angeles'
p4804
F0.3888888888888889
sS'holdings'
p4805
F0.25
sS'guthrie'
p4806
F1.0
sS'gainer'
p4807
F0.25
sS'desktop'
p4808
F0.14285714285714285
sS'giadone'
p4809
F1.0
sS'executives'
p4810
F0.15384615384615385
sS'own'
p4811
F0.2
sS'letters'
p4812
F0.14285714285714285
sS'previously'
p4813
F0.07692307692307693
sS'washington'
p4814
F0.21568627450980393
sS'airfield'
p4815
F1.0
sS'included'
p4816
F0.3157894736842105
sS'guard'
p4817
F0.08333333333333333
sS'weighted'
p4818
F0.5
sS'female'
p4819
F0.2
sS'artists'
p4820
F0.5714285714285714
sS'darvish'
p4821
F1.0
sS'kernan'
p4822
F1.0
sS'unabated'
p4823
F1.0
sS'infospace'
p4824
F1.0
sS'utility'
p4825
F0.1111111111111111
sS'hitting'
p4826
F0.25
sS'mississippi'
p4827
F0.4
sS'permits'
p4828
F1.0
sS'accused'
p4829
F0.125
sS'pc'
p4830
F0.25
sS'transfer'
p4831
F0.2
sS'minority'
p4832
F0.4
sS'firefighter'
p4833
F1.0
sS'spots'
p4834
F0.3333333333333333
sS'intention'
p4835
F0.25
sS'joaquin'
p4836
F0.3333333333333333
sS'fidelity'
p4837
F0.5
sS'biggest'
p4838
F0.24
sS'exposure'
p4839
F1.0
sS'messenger'
p4840
F0.5
sS'laredo'
p4841
F1.0
sS'automates'
p4842
F1.0
sS'cricket'
p4843
F1.0
sS'buy'
p4844
F0.26666666666666666
sS'north'
p4845
F0.2727272727272727
sS'stadium'
p4846
F1.0
sS'bus'
p4847
F0.1
sS'coke'
p4848
F0.25
sS'sequel'
p4849
F1.0
sS'but'
p4850
F0.09803921568627451
sS'attributed'
p4851
F0.5
sS'delivery'
p4852
F0.14285714285714285
sS'neutral'
p4853
F0.5
sS'construction'
p4854
F0.125
sS'goals'
p4855
F0.3333333333333333
sS'courts'
p4856
F0.46153846153846156
sS'mclaren'
p4857
F1.0
sS'nassau'
p4858
F1.0
sS'ear'
p4859
F0.3333333333333333
sS'valuation'
p4860
F1.0
sS'witness'
p4861
F0.2857142857142857
sS'he'
p4862
F0.1615798922800718
sS'count'
p4863
F0.2222222222222222
sS'riordan'
p4864
F1.0
sS'made'
p4865
F0.058823529411764705
sS'kessel'
p4866
F1.0
sS'whether'
p4867
F0.09523809523809523
sS'levin'
p4868
F1.0
sS'official'
p4869
F0.28125
sS'loonie'
p4870
F1.0
sS'signed'
p4871
F0.1
sS'kathleen'
p4872
F0.3333333333333333
sS'record'
p4873
F0.27586206896551724
sS'ruling'
p4874
F0.04
sS'monument'
p4875
F0.3333333333333333
sS'chipset'
p4876
F0.5
sS'distribution'
p4877
F0.125
sS'mugabe'
p4878
F0.3333333333333333
sS'minutes'
p4879
F0.2
sS'display'
p4880
F0.2
sS'urging'
p4881
F0.5
sS'firm'
p4882
F0.1111111111111111
sS'supreme'
p4883
F0.2
sS'pin'
p4884
F0.5
sS'deaths'
p4885
F0.2727272727272727
sS'handset'
p4886
F0.5
sS'exceeded'
p4887
F0.5
sS'persistent'
p4888
F0.5
sS'83'
p4889
F0.21428571428571427
sS'pikes'
p4890
F0.5
sS'education'
p4891
F0.5
sS'eric'
p4892
F0.6
sS'slipping'
p4893
F1.0
sS'inc'
p4894
F0.08771929824561403
sS'cavalry'
p4895
F0.5
sS'mutual'
p4896
F0.375
sS'compared'
p4897
F0.13513513513513514
sS'torch'
p4898
F1.0
sS'courant'
p4899
F1.0
sS'48'
p4900
F0.10526315789473684
sS'fraley'
p4901
F0.5
sS'46'
p4902
F0.22727272727272727
sS'47'
p4903
F0.15789473684210525
sS'44'
p4904
F0.08695652173913043
sS'45'
p4905
F0.2727272727272727
sS'42'
p4906
F0.16666666666666666
sS'treatment'
p4907
F0.15
sS'40'
p4908
F0.1794871794871795
sS'peoplesoft'
p4909
F0.17857142857142858
sS'hospitalized'
p4910
F0.4
sS'other'
p4911
F0.14556962025316456
sS'special'
p4912
F0.26666666666666666
sS'branch'
p4913
F0.25
sS'toured'
p4914
F0.3333333333333333
sS'pollard'
p4915
F1.0
sS'out'
p4916
F0.09401709401709402
sS'guidant'
p4917
F0.5
sS'rian'
p4918
F1.0
sS'formats'
p4919
F0.3333333333333333
sS'canada'
p4920
F0.21621621621621623
sS'francisco'
p4921
F0.23076923076923078
sS'monday'
p4922
F0.15789473684210525
sS'ubs'
p4923
F1.0
sS'shredded'
p4924
F1.0
sS'class'
p4925
F0.1
sS'numan'
p4926
F1.0
sS'june'
p4927
F0.10294117647058823
sS'tabloid'
p4928
F1.0
sS'feral'
p4929
F1.0
sS'margaret'
p4930
F1.0
sS'america'
p4931
F0.2692307692307692
sS'richardson'
p4932
F0.25
sS'fischi'
p4933
F0.2
sS'zubaidi'
p4934
F1.0
sS'mastermind'
p4935
F1.0
sS'curbed'
p4936
F1.0
sS'opened'
p4937
F0.25
sS'philips'
p4938
F0.5
sS'anthony'
p4939
F0.4
sS'parole'
p4940
F0.3333333333333333
sS'tomcat'
p4941
F1.0
sS'cronyn'
p4942
F1.0
sS'saladin'
p4943
F1.0
sS'baker'
p4944
F0.2
sS'space'
p4945
F0.1724137931034483
sS'lasted'
p4946
F1.0
sS'4p'
p4947
F1.0
sS'intentionally'
p4948
F0.25
sS'ortega'
p4949
F0.5
sS'hikes'
p4950
F1.0
sS'portion'
p4951
F0.3333333333333333
sS'compete'
p4952
F0.2
sS'oran'
p4953
F1.0
sS'searched'
p4954
F0.4
sS'rural'
p4955
F0.4
sS'architect'
p4956
F0.25
sS'accidents'
p4957
F1.0
sS'retirees'
p4958
F0.6666666666666666
sS'liver'
p4959
F0.6666666666666666
s.