(dp0
S"Yucaipa owned Dominick's before selling the chain to Safeway in 1998 for $2.5 billion.Yucaipa bought Dominick's in 1995 for $693 million and sold it to Safeway for $1.8 billion in 1998."
p1
(lp2
cnumpy.core.multiarray
scalar
p3
(cnumpy
dtype
p4
(S'f8'
p5
I0
I1
tp6
Rp7
(I3
S'<'
p8
NNNI-1
I-1
I0
tp9
bS'\x1c\xc7q\x1c\xc7q\xbc?'
p10
tp11
Rp12
aF0.4444444444444444
aF1.0
asS'Around 0335 GMT, Tab shares were up 19 cents, or 4.4%, at A$4.56, having earlier set a record high of A$4.57.Tab shares jumped 20 cents, or 4.6%, to set a record closing high at A$4.57.'
p13
(lp14
g3
(g7
S'\xd7z\xad\xd7z\xad\xd7?'
p15
tp16
Rp17
aF0.25
aF0.0
asS'Amrozi accused his brother, whom he called "the witness", of deliberately distorting his evidence.Referring to him as only "the witness", Amrozi accused his brother of deliberately distorting his evidence.'
p18
(lp19
g3
(g7
S'\r\xb78\xf6Y\xc4\xe4?'
p20
tp21
Rp22
aI1
aF1.0
asS'The stock rose $2.11, or about 11 percent, to close Friday at $21.51 on the New York Stock Exchange.PG&E Corp. shares jumped $1.63 or 8 percent to $21.03 on the New York Stock Exchange on Friday.'
p23
(lp24
g3
(g7
S'\x9f\xf1\xcci\xc9\xba\xd5?'
p25
tp26
Rp27
aF0.0
aF0.9090909090909091
asS"They had published an advertisement on the Internet on June 10, offering the cargo for sale, he added.On June 10, the ship's owners had published an advertisement on the Internet, offering the explosives for sale."
p28
(lp29
g3
(g7
S'\xe0\xceZ~\xa2\xc2\xdd?'
p30
tp31
Rp32
aF1.0
aF1.0
as.